gplink-2.2.37 (Jan 22 2024)
Listing File Generated: 2025-6-6  17:19:46
 
 
Address  Value    Disassembly              Source
-------  -----    -----------              ------
                                           ;--------------------------------------------------------
                                           ; external declarations
                                           ;--------------------------------------------------------
                                           	extern	_INDF0bits
                                           	extern	_INDF1bits
                                           	extern	_INDF2bits
                                           	extern	_HIBYTEbits
                                           	extern	_FSR0bits
                                           	extern	_FSR1bits
                                           	extern	_PCLbits
                                           	extern	_PFLAGbits
                                           	extern	_MCRbits
                                           	extern	_INDF3bits
                                           	extern	_INTEbits
                                           	extern	_INTFbits
                                           	extern	_DRVCRbits
                                           	extern	_P0KBCRbits
                                           	extern	_P1KBCRbits
                                           	extern	_P2KBCRbits
                                           	extern	_IOP0bits
                                           	extern	_OEP0bits
                                           	extern	_PUP0bits
                                           	extern	_PDP0bits
                                           	extern	_IOP1bits
                                           	extern	_OEP1bits
                                           	extern	_PUP1bits
                                           	extern	_PDP1bits
                                           	extern	_T0CRbits
                                           	extern	_T0CNTbits
                                           	extern	_T0LOADbits
                                           	extern	_T0DATAbits
                                           	extern	_T1CRbits
                                           	extern	_T1CNTbits
                                           	extern	_T1LOADbits
                                           	extern	_T1DATAbits
                                           	extern	_T2CRbits
                                           	extern	_T2CNTbits
                                           	extern	_T2LOADbits
                                           	extern	_T2DATAbits
                                           	extern	_T3CRbits
                                           	extern	_T3CNTbits
                                           	extern	_T3LOADbits
                                           	extern	_PWM0DRbits
                                           	extern	_PWM1DRbits
                                           	extern	_PWM2DRbits
                                           	extern	_PWMCR0bits
                                           	extern	_PWMCR1bits
                                           	extern	_OSCMRbits
                                           	extern	_LVDCRbits
                                           	extern	_ADCR0bits
                                           	extern	_ADCR1bits
                                           	extern	_ADCR2bits
                                           	extern	_OSADJCRbits
                                           	extern	_ADRHbits
                                           	extern	_ADRLbits
                                           	extern	_P0ADCRbits
                                           	extern	_P1ADCRbits
                                           	extern	_IOP2bits
                                           	extern	_OEP2bits
                                           	extern	_PUP2bits
                                           	extern	_PDP2bits
                                           	extern	_PMODbits
                                           	extern	_PWMCR3bits
                                           	extern	_PWMCR2bits
                                           	extern	_PFRCCRbits
                                           	extern	_PFRCCALbits
                                           	extern	_EECRbits
                                           	extern	_EEPRbits
                                           	extern	_EEARbits
                                           	extern	_EEDRHbits
                                           	extern	_EEDRLbits
                                           	extern	_DBGCRbits
                                           	extern	_DBGPRbits
                                           	extern	_HIRCCALbits
                                           	extern	_INDF0
                                           	extern	_INDF1
                                           	extern	_INDF2
                                           	extern	_HIBYTE
                                           	extern	_FSR0
                                           	extern	_FSR1
                                           	extern	_PCL
                                           	extern	_PFLAG
                                           	extern	_MCR
                                           	extern	_INDF3
                                           	extern	_INTE
                                           	extern	_INTF
                                           	extern	_DRVCR
                                           	extern	_P0KBCR
                                           	extern	_P1KBCR
                                           	extern	_P2KBCR
                                           	extern	_IOP0
                                           	extern	_OEP0
                                           	extern	_PUP0
                                           	extern	_PDP0
                                           	extern	_IOP1
                                           	extern	_OEP1
                                           	extern	_PUP1
                                           	extern	_PDP1
                                           	extern	_T0CR
                                           	extern	_T0CNT
                                           	extern	_T0LOAD
                                           	extern	_T0DATA
                                           	extern	_T1CR
                                           	extern	_T1CNT
                                           	extern	_T1LOAD
                                           	extern	_T1DATA
                                           	extern	_T2CR
                                           	extern	_T2CNT
                                           	extern	_T2LOAD
                                           	extern	_T2DATA
                                           	extern	_T3CR
                                           	extern	_T3CNT
                                           	extern	_T3LOAD
                                           	extern	_PWM0DR
                                           	extern	_PWM1DR
                                           	extern	_PWM2DR
                                           	extern	_PWMCR0
                                           	extern	_PWMCR1
                                           	extern	_OSCMR
                                           	extern	_LVDCR
                                           	extern	_ADCR0
                                           	extern	_ADCR1
                                           	extern	_ADCR2
                                           	extern	_OSADJCR
                                           	extern	_ADRH
                                           	extern	_ADRL
                                           	extern	_P0ADCR
                                           	extern	_P1ADCR
                                           	extern	_IOP2
                                           	extern	_OEP2
                                           	extern	_PUP2
                                           	extern	_PDP2
                                           	extern	_PMOD
                                           	extern	_PWMCR3
                                           	extern	_PWMCR2
                                           	extern	_PFRCCR
                                           	extern	_PFRCCAL
                                           	extern	_EECR
                                           	extern	_EEPR
                                           	extern	_EEAR
                                           	extern	_EEDRH
                                           	extern	_EEDRL
                                           	extern	_DBGCR
                                           	extern	_DBGPR
                                           	extern	_HIRCCAL
                                           ;--------------------------------------------------------
                                           ; global declarations
                                           ;--------------------------------------------------------
                                           	global	_led_blue_off
                                           	global	_led_blue_on
                                           	global	_led_red_off
                                           	global	_led_red_on
                                           	global	_delay_ms
                                           	global	_CLR_RAM
                                           	global	_IO_Init
                                           	global	_adc_config
                                           	global	_adc_get_val
                                           	global	_adc_get_val_once
                                           	global	_timer3_config
                                           	global	_led_red_pwm_config
                                           	global	_led_blue_pwm_config
                                           	global	_Sys_Init
                                           	global	_key_scan
                                           	global	_key_event_handle
                                           	global	_main
                                           	global	_int_isr
                                           	global	_cur_dev_status
                                           	global	_key_event
                                           	global	_power_off_cnt
                                           	global	_abuf
                                           	global	_statusbuf
                                           	global	_adc_val
                                           	global	_i
                                           	global	_led_mode
                                           	global	_flag1
                                           
                                           	global STK06
                                           	global STK05
                                           	global STK04
                                           	global STK03
                                           	global STK02
                                           	global STK01
                                           	global STK00
                                           
                                           sharebank udata_ovr 0x0000
                                           STK06	res 1
                                           STK05	res 1
                                           STK04	res 1
                                           STK03	res 1
                                           STK02	res 1
                                           STK01	res 1
                                           STK00	res 1
                                           
                                           ;--------------------------------------------------------
                                           ; global definitions
                                           ;--------------------------------------------------------
                                           UD_MC32F7361_0	udata
                                           _cur_dev_status	res	1
                                           
                                           UD_MC32F7361_1	udata
                                           _key_event	res	1
                                           
                                           UD_MC32F7361_2	udata
                                           _power_off_cnt	res	4
                                           
                                           UD_MC32F7361_3	udata
                                           _abuf	res	1
                                           
                                           UD_MC32F7361_4	udata
                                           _statusbuf	res	1
                                           
                                           UD_MC32F7361_5	udata
                                           _adc_val	res	2
                                           
                                           UD_MC32F7361_6	udata
                                           _i	res	1
                                           
                                           UD_MC32F7361_7	udata
                                           _led_mode	res	1
                                           
                                           UD_MC32F7361_8	udata
                                           _flag1	res	1
                                           
                                           ;--------------------------------------------------------
                                           ; absolute symbol definitions
                                           ;--------------------------------------------------------
                                           ;--------------------------------------------------------
                                           ; compiler-defined variables
                                           ;--------------------------------------------------------
                                           UDL_MC32F7361_0	udata
                                           r0x1018	res	1
                                           r0x1017	res	1
                                           r0x1019	res	1
                                           r0x101A	res	1
                                           r0x101B	res	1
                                           r0x101C	res	1
                                           r0x101D	res	1
                                           r0x101E	res	1
                                           r0x101F	res	1
                                           r0x1020	res	1
                                           r0x1021	res	1
                                           r0x1023	res	1
                                           r0x1022	res	1
                                           r0x1024	res	1
                                           r0x1025	res	1
                                           r0x1026	res	1
                                           r0x1027	res	1
                                           r0x1029	res	1
                                           r0x1028	res	1
                                           r0x102C	res	1
                                           r0x102D	res	1
                                           _key_scan_cur_key_id_65536_46	res	1
                                           _key_scan_filter_cnt_65536_46	res	1
                                           _key_scan_filter_key_id_65536_46	res	1
                                           _key_scan_press_cnt_65536_46	res	1
                                           _key_scan_flag_is_key_mode_hold_65536_46	res	1
                                           _key_scan_last_key_id_65536_46	res	1
                                           _main_key_press_cnt_262144_118	res	1
                                           _int_isr_key_scan_cnt_196608_125	res	1
                                           _int_isr_blink_cnt_196608_127	res	2
                                           _int_isr_into_low_power_cnt_196608_143	res	2
                                           _int_isr_cut_down_charge_cnt_196608_147	res	2
                                           ;--------------------------------------------------------
                                           ; initialized data
                                           ;--------------------------------------------------------
                                           
                                           ;@Allocation info for local variables in function 'delay_ms'
                                           ;@delay_ms led_red_on                Allocated to registers ;size:2
                                           ;@delay_ms led_red_off               Allocated to registers ;size:2
                                           ;@delay_ms led_blue_on               Allocated to registers ;size:2
                                           ;@delay_ms led_blue_off              Allocated to registers ;size:2
                                           ;@delay_ms delay_ms                  Allocated to registers ;size:2
                                           ;@delay_ms INDF0bits                 Allocated to registers ;size:1
                                           ;@delay_ms INDF1bits                 Allocated to registers ;size:1
                                           ;@delay_ms INDF2bits                 Allocated to registers ;size:1
                                           ;@delay_ms HIBYTEbits                Allocated to registers ;size:1
                                           ;@delay_ms FSR0bits                  Allocated to registers ;size:1
                                           ;@delay_ms FSR1bits                  Allocated to registers ;size:1
                                           ;@delay_ms PCLbits                   Allocated to registers ;size:1
                                           ;@delay_ms PFLAGbits                 Allocated to registers ;size:1
                                           ;@delay_ms MCRbits                   Allocated to registers ;size:1
                                           ;@delay_ms INDF3bits                 Allocated to registers ;size:1
                                           ;@delay_ms INTEbits                  Allocated to registers ;size:1
                                           ;@delay_ms INTFbits                  Allocated to registers ;size:1
                                           ;@delay_ms DRVCRbits                 Allocated to registers ;size:1
                                           ;@delay_ms P0KBCRbits                Allocated to registers ;size:1
                                           ;@delay_ms P1KBCRbits                Allocated to registers ;size:1
                                           ;@delay_ms P2KBCRbits                Allocated to registers ;size:1
                                           ;@delay_ms IOP0bits                  Allocated to registers ;size:1
                                           ;@delay_ms OEP0bits                  Allocated to registers ;size:1
                                           ;@delay_ms PUP0bits                  Allocated to registers ;size:1
                                           ;@delay_ms PDP0bits                  Allocated to registers ;size:1
                                           ;@delay_ms IOP1bits                  Allocated to registers ;size:1
                                           ;@delay_ms OEP1bits                  Allocated to registers ;size:1
                                           ;@delay_ms PUP1bits                  Allocated to registers ;size:1
                                           ;@delay_ms PDP1bits                  Allocated to registers ;size:1
                                           ;@delay_ms T0CRbits                  Allocated to registers ;size:1
                                           ;@delay_ms T0CNTbits                 Allocated to registers ;size:1
                                           ;@delay_ms T0LOADbits                Allocated to registers ;size:1
                                           ;@delay_ms T0DATAbits                Allocated to registers ;size:1
                                           ;@delay_ms T1CRbits                  Allocated to registers ;size:1
                                           ;@delay_ms T1CNTbits                 Allocated to registers ;size:1
                                           ;@delay_ms T1LOADbits                Allocated to registers ;size:1
                                           ;@delay_ms T1DATAbits                Allocated to registers ;size:1
                                           ;@delay_ms T2CRbits                  Allocated to registers ;size:1
                                           ;@delay_ms T2CNTbits                 Allocated to registers ;size:1
                                           ;@delay_ms T2LOADbits                Allocated to registers ;size:1
                                           ;@delay_ms T2DATAbits                Allocated to registers ;size:1
                                           ;@delay_ms T3CRbits                  Allocated to registers ;size:1
                                           ;@delay_ms T3CNTbits                 Allocated to registers ;size:1
                                           ;@delay_ms T3LOADbits                Allocated to registers ;size:1
                                           ;@delay_ms PWM0DRbits                Allocated to registers ;size:1
                                           ;@delay_ms PWM1DRbits                Allocated to registers ;size:1
                                           ;@delay_ms PWM2DRbits                Allocated to registers ;size:1
                                           ;@delay_ms PWMCR0bits                Allocated to registers ;size:1
                                           ;@delay_ms PWMCR1bits                Allocated to registers ;size:1
                                           ;@delay_ms OSCMRbits                 Allocated to registers ;size:1
                                           ;@delay_ms LVDCRbits                 Allocated to registers ;size:1
                                           ;@delay_ms ADCR0bits                 Allocated to registers ;size:1
                                           ;@delay_ms ADCR1bits                 Allocated to registers ;size:1
                                           ;@delay_ms ADCR2bits                 Allocated to registers ;size:1
                                           ;@delay_ms OSADJCRbits               Allocated to registers ;size:1
                                           ;@delay_ms ADRHbits                  Allocated to registers ;size:1
                                           ;@delay_ms ADRLbits                  Allocated to registers ;size:1
                                           ;@delay_ms P0ADCRbits                Allocated to registers ;size:1
                                           ;@delay_ms P1ADCRbits                Allocated to registers ;size:1
                                           ;@delay_ms IOP2bits                  Allocated to registers ;size:1
                                           ;@delay_ms OEP2bits                  Allocated to registers ;size:1
                                           ;@delay_ms PUP2bits                  Allocated to registers ;size:1
                                           ;@delay_ms PDP2bits                  Allocated to registers ;size:1
                                           ;@delay_ms PMODbits                  Allocated to registers ;size:1
                                           ;@delay_ms PWMCR3bits                Allocated to registers ;size:1
                                           ;@delay_ms PWMCR2bits                Allocated to registers ;size:1
                                           ;@delay_ms PFRCCRbits                Allocated to registers ;size:1
                                           ;@delay_ms PFRCCALbits               Allocated to registers ;size:1
                                           ;@delay_ms EECRbits                  Allocated to registers ;size:1
                                           ;@delay_ms EEPRbits                  Allocated to registers ;size:1
                                           ;@delay_ms EEARbits                  Allocated to registers ;size:1
                                           ;@delay_ms EEDRHbits                 Allocated to registers ;size:1
                                           ;@delay_ms EEDRLbits                 Allocated to registers ;size:1
                                           ;@delay_ms DBGCRbits                 Allocated to registers ;size:1
                                           ;@delay_ms DBGPRbits                 Allocated to registers ;size:1
                                           ;@delay_ms HIRCCALbits               Allocated to registers ;size:1
                                           ;@delay_ms cur_dev_status            Allocated to registers ;size:1
                                           ;@delay_ms key_event                 Allocated to registers ;size:1
                                           ;@delay_ms power_off_cnt             Allocated to registers ;size:4
                                           ;@delay_ms abuf                      Allocated to registers ;size:1
                                           ;@delay_ms statusbuf                 Allocated to registers ;size:1
                                           ;@delay_ms adc_val                   Allocated to registers ;size:2
                                           ;@delay_ms i                         Allocated to registers ;size:1
                                           ;@delay_ms led_mode                  Allocated to registers ;size:1
                                           ;@delay_ms flag1                     Allocated to registers ;size:1
                                           ;@delay_ms xms                       Allocated to registers ;size:2
                                           ;@delay_ms i                         Allocated to registers r0x1019 r0x101A ;size:2
                                           ;@delay_ms INDF0                     Allocated to registers ;size:1
                                           ;@delay_ms INDF1                     Allocated to registers ;size:1
                                           ;@delay_ms INDF2                     Allocated to registers ;size:1
                                           ;@delay_ms HIBYTE                    Allocated to registers ;size:1
                                           ;@delay_ms FSR0                      Allocated to registers ;size:1
                                           ;@delay_ms FSR1                      Allocated to registers ;size:1
                                           ;@delay_ms PCL                       Allocated to registers ;size:1
                                           ;@delay_ms PFLAG                     Allocated to registers ;size:1
                                           ;@delay_ms MCR                       Allocated to registers ;size:1
                                           ;@delay_ms INDF3                     Allocated to registers ;size:1
                                           ;@delay_ms INTE                      Allocated to registers ;size:1
                                           ;@delay_ms INTF                      Allocated to registers ;size:1
                                           ;@delay_ms DRVCR                     Allocated to registers ;size:1
                                           ;@delay_ms P0KBCR                    Allocated to registers ;size:1
                                           ;@delay_ms P1KBCR                    Allocated to registers ;size:1
                                           ;@delay_ms P2KBCR                    Allocated to registers ;size:1
                                           ;@delay_ms IOP0                      Allocated to registers ;size:1
                                           ;@delay_ms OEP0                      Allocated to registers ;size:1
                                           ;@delay_ms PUP0                      Allocated to registers ;size:1
                                           ;@delay_ms PDP0                      Allocated to registers ;size:1
                                           ;@delay_ms IOP1                      Allocated to registers ;size:1
                                           ;@delay_ms OEP1                      Allocated to registers ;size:1
                                           ;@delay_ms PUP1                      Allocated to registers ;size:1
                                           ;@delay_ms PDP1                      Allocated to registers ;size:1
                                           ;@delay_ms T0CR                      Allocated to registers ;size:1
                                           ;@delay_ms T0CNT                     Allocated to registers ;size:1
                                           ;@delay_ms T0LOAD                    Allocated to registers ;size:1
                                           ;@delay_ms T0DATA                    Allocated to registers ;size:1
                                           ;@delay_ms T1CR                      Allocated to registers ;size:1
                                           ;@delay_ms T1CNT                     Allocated to registers ;size:1
                                           ;@delay_ms T1LOAD                    Allocated to registers ;size:1
                                           ;@delay_ms T1DATA                    Allocated to registers ;size:1
                                           ;@delay_ms T2CR                      Allocated to registers ;size:1
                                           ;@delay_ms T2CNT                     Allocated to registers ;size:1
                                           ;@delay_ms T2LOAD                    Allocated to registers ;size:1
                                           ;@delay_ms T2DATA                    Allocated to registers ;size:1
                                           ;@delay_ms T3CR                      Allocated to registers ;size:1
                                           ;@delay_ms T3CNT                     Allocated to registers ;size:1
                                           ;@delay_ms T3LOAD                    Allocated to registers ;size:1
                                           ;@delay_ms PWM0DR                    Allocated to registers ;size:1
                                           ;@delay_ms PWM1DR                    Allocated to registers ;size:1
                                           ;@delay_ms PWM2DR                    Allocated to registers ;size:1
                                           ;@delay_ms PWMCR0                    Allocated to registers ;size:1
                                           ;@delay_ms PWMCR1                    Allocated to registers ;size:1
                                           ;@delay_ms OSCMR                     Allocated to registers ;size:1
                                           ;@delay_ms LVDCR                     Allocated to registers ;size:1
                                           ;@delay_ms ADCR0                     Allocated to registers ;size:1
                                           ;@delay_ms ADCR1                     Allocated to registers ;size:1
                                           ;@delay_ms ADCR2                     Allocated to registers ;size:1
                                           ;@delay_ms OSADJCR                   Allocated to registers ;size:1
                                           ;@delay_ms ADRH                      Allocated to registers ;size:1
                                           ;@delay_ms ADRL                      Allocated to registers ;size:1
                                           ;@delay_ms P0ADCR                    Allocated to registers ;size:1
                                           ;@delay_ms P1ADCR                    Allocated to registers ;size:1
                                           ;@delay_ms IOP2                      Allocated to registers ;size:1
                                           ;@delay_ms OEP2                      Allocated to registers ;size:1
                                           ;@delay_ms PUP2                      Allocated to registers ;size:1
                                           ;@delay_ms PDP2                      Allocated to registers ;size:1
                                           ;@delay_ms PMOD                      Allocated to registers ;size:1
                                           ;@delay_ms PWMCR3                    Allocated to registers ;size:1
                                           ;@delay_ms PWMCR2                    Allocated to registers ;size:1
                                           ;@delay_ms PFRCCR                    Allocated to registers ;size:1
                                           ;@delay_ms PFRCCAL                   Allocated to registers ;size:1
                                           ;@delay_ms EECR                      Allocated to registers ;size:1
                                           ;@delay_ms EEPR                      Allocated to registers ;size:1
                                           ;@delay_ms EEAR                      Allocated to registers ;size:1
                                           ;@delay_ms EEDRH                     Allocated to registers ;size:1
                                           ;@delay_ms EEDRL                     Allocated to registers ;size:1
                                           ;@delay_ms DBGCR                     Allocated to registers ;size:1
                                           ;@delay_ms DBGPR                     Allocated to registers ;size:1
                                           ;@delay_ms HIRCCAL                   Allocated to registers ;size:1
                                           ;@end Allocation info for local variables in function 'delay_ms';
                                           ;@Allocation info for local variables in function 'CLR_RAM'
                                           ;@end Allocation info for local variables in function 'CLR_RAM';
                                           ;@Allocation info for local variables in function 'IO_Init'
                                           ;@end Allocation info for local variables in function 'IO_Init';
                                           ;@Allocation info for local variables in function 'adc_config'
                                           ;@end Allocation info for local variables in function 'adc_config';
                                           ;@Allocation info for local variables in function 'adc_get_val'
                                           ;@adc_get_val i                         Allocated to registers r0x101F ;size:1
                                           ;@adc_get_val g_temp_value              Allocated to registers r0x1020 r0x1021 ;size:2
                                           ;@adc_get_val g_tmpbuff                 Allocated to registers r0x101B r0x101C r0x1022 r0x1024 ;size:4
                                           ;@adc_get_val g_adcmax                  Allocated to registers r0x101B r0x101C ;size:2
                                           ;@adc_get_val g_adcmin                  Allocated to registers r0x101D r0x101E ;size:2
                                           ;@end Allocation info for local variables in function 'adc_get_val';
                                           ;@Allocation info for local variables in function 'adc_get_val_once'
                                           ;@adc_get_val_once g_temp_value              Allocated to registers r0x1029 r0x1028 ;size:2
                                           ;@end Allocation info for local variables in function 'adc_get_val_once';
                                           ;@Allocation info for local variables in function 'timer3_config'
                                           ;@end Allocation info for local variables in function 'timer3_config';
                                           ;@Allocation info for local variables in function 'led_red_pwm_config'
                                           ;@end Allocation info for local variables in function 'led_red_pwm_config';
                                           ;@Allocation info for local variables in function 'led_blue_pwm_config'
                                           ;@end Allocation info for local variables in function 'led_blue_pwm_config';
                                           ;@Allocation info for local variables in function 'led_red_on'
                                           ;@end Allocation info for local variables in function 'led_red_on';
                                           ;@Allocation info for local variables in function 'led_red_off'
                                           ;@end Allocation info for local variables in function 'led_red_off';
                                           ;@Allocation info for local variables in function 'led_blue_on'
                                           ;@end Allocation info for local variables in function 'led_blue_on';
                                           ;@Allocation info for local variables in function 'led_blue_off'
                                           ;@end Allocation info for local variables in function 'led_blue_off';
                                           ;@Allocation info for local variables in function 'Sys_Init'
                                           ;@end Allocation info for local variables in function 'Sys_Init';
                                           ;@Allocation info for local variables in function 'key_scan'
                                           ;@key_scan last_key_id               Allocated to registers ;size:1
                                           ;@key_scan press_cnt                 Allocated to registers ;size:1
                                           ;@key_scan filter_cnt                Allocated to registers ;size:1
                                           ;@key_scan filter_key_id             Allocated to registers ;size:1
                                           ;@key_scan cur_key_id                Allocated to registers ;size:1
                                           ;@key_scan flag_is_key_mode_hold     Allocated to registers ;size:1
                                           ;@end Allocation info for local variables in function 'key_scan';
                                           ;@Allocation info for local variables in function 'key_scan'
                                           ;@key_scan last_key_id               Allocated to registers ;size:1
                                           ;@key_scan press_cnt                 Allocated to registers ;size:1
                                           ;@key_scan filter_cnt                Allocated to registers ;size:1
                                           ;@key_scan filter_key_id             Allocated to registers ;size:1
                                           ;@key_scan cur_key_id                Allocated to registers ;size:1
                                           ;@key_scan flag_is_key_mode_hold     Allocated to registers ;size:1
                                           ;@end Allocation info for local variables in function 'key_scan';
                                           ;@Allocation info for local variables in function 'key_event_handle'
                                           ;@end Allocation info for local variables in function 'key_event_handle';
                                           ;@Allocation info for local variables in function 'main'
                                           ;@main key_press_cnt             Allocated to registers ;size:1
                                           ;@end Allocation info for local variables in function 'main';
                                           ;@Allocation info for local variables in function 'int_isr'
                                           ;@int_isr key_scan_cnt              Allocated to registers ;size:1
                                           ;@int_isr blink_cnt                 Allocated to registers ;size:2
                                           ;@int_isr into_low_power_cnt        Allocated to registers ;size:2
                                           ;@int_isr cut_down_charge_cnt       Allocated to registers ;size:2
                                           ;@end Allocation info for local variables in function 'int_isr';
                                           ;@Allocation info for local variables in function 'int_isr'
                                           ;@int_isr key_scan_cnt              Allocated to registers ;size:1
                                           ;@int_isr blink_cnt                 Allocated to registers ;size:2
                                           ;@int_isr into_low_power_cnt        Allocated to registers ;size:2
                                           ;@int_isr cut_down_charge_cnt       Allocated to registers ;size:2
                                           ;@end Allocation info for local variables in function 'int_isr';
                                           
                                           ;--------------------------------------------------------
                                           ; overlayable items in internal ram 
                                           ;--------------------------------------------------------
                                           ;	udata_ovr
                                           ;--------------------------------------------------------
                                           ; reset vector 
                                           ;--------------------------------------------------------
                                           STARTUP	code 0x0000
000000   a094     goto    0x94             	goto	_main
                                           ;--------------------------------------------------------
                                           ; interrupt and initialization code
                                           ;--------------------------------------------------------
                                           c_interrupt	code	0x8
                                           __sdcc_interrupt
                                           ;***
                                           ;  pBlock Stats: dbName = I
                                           ;***
                                           ;entry:  _int_isr	;Function start
                                           ; 0 exit points
                                           ;functions called:
                                           ;   _key_scan
                                           ;   _key_scan
                                           ;2 compiler assigned registers:
                                           ;   r0x102C
                                           ;   r0x102D
                                           ;; Starting pCode block
                                           _int_isr	;Function start
                                           ; 0 exit points
                                           ;	.line	630; "MC32F7361.c"	__endasm;
                                           	;
000008   5632     movra   0x32             	movra	_abuf;
000009   4587     swapar  0x187            	swapar	_PFLAG;
00000a   5633     movra   0x33             	movra	_statusbuf;
                                           	
                                           ;	.line	632; "MC32F7361.c"	if (T3IF & T3IE)
00000b   761a     clrr    0x1a             	CLRR	r0x102C
00000c   ff8b     jbclr   0x18b, 0x7       	JBCLR	_INTFbits,7
00000d   661a     incr    0x1a             	INCR	r0x102C
00000e   761b     clrr    0x1b             	CLRR	r0x102D
00000f   ff8a     jbclr   0x18a, 0x7       	JBCLR	_INTEbits,7
000010   661b     incr    0x1b             	INCR	r0x102D
000011   581b     movar   0x1b             	MOVAR	r0x102D
000012   7a1a     andra   0x1a             	ANDRA	r0x102C
000013   3c00     movai   0                	MOVAI	0x00
000014   5c1a     orar    0x1a             	ORAR	r0x102C
000015   f587     jbclr   0x187, 0x2       	JBCLR	PFLAG,2
000016   a08f     goto    0x8f             	GOTO	_00568_DS_
                                           ;	.line	639; "MC32F7361.c"	key_scan_cnt++;
000017   6623     incr    0x23             	INCR	_int_isr_key_scan_cnt_196608_125
                                           ;;unsigned compare: left < lit(0xA=10), size=1
                                           ;	.line	640; "MC32F7361.c"	if (key_scan_cnt >= 10)
000018   3c0a     movai   0xa              	MOVAI	0x0a
000019   4823     rsubar  0x23             	RSUBAR	_int_isr_key_scan_cnt_196608_125
00001a   e187     jbset   0x187, 0         	JBSET	PFLAG,0
00001b   a01e     goto    0x1e             	GOTO	_00530_DS_
                                           ;;genSkipc:3291: created from rifx:013B5EFC
                                           ;	.line	642; "MC32F7361.c"	key_scan_cnt = 0;
00001c   7623     clrr    0x23             	CLRR	_int_isr_key_scan_cnt_196608_125
                                           ;	.line	643; "MC32F7361.c"	key_scan();
00001d   8181     call    0x181            	CALL	_key_scan
                                           _00530_DS_
                                           ;	.line	649; "MC32F7361.c"	if (flag_is_power_low)
00001e   e636     jbset   0x36, 0x3        	JBSET	_flag1,3
00001f   a03a     goto    0x3a             	GOTO	_00547_DS_
                                           ;	.line	651; "MC32F7361.c"	blink_cnt++;
000020   6624     incr    0x24             	INCR	_int_isr_blink_cnt_196608_127
000021   f587     jbclr   0x187, 0x2       	JBCLR	PFLAG,2
000022   6625     incr    0x25             	INCR	(_int_isr_blink_cnt_196608_127 + 1)
                                           ;;swapping arguments (AOP_TYPEs 1/3)
                                           ;;unsigned compare: left >= lit(0x3E9=1001), size=2
                                           ;	.line	652; "MC32F7361.c"	if (blink_cnt <= 1000)
000023   3c03     movai   0x3              	MOVAI	0x03
000024   4825     rsubar  0x25             	RSUBAR	(_int_isr_blink_cnt_196608_127 + 1)
000025   e587     jbset   0x187, 0x2       	JBSET	PFLAG,2
000026   a029     goto    0x29             	GOTO	_00628_DS_
000027   3ce9     movai   0xe9             	MOVAI	0xe9
000028   4824     rsubar  0x24             	RSUBAR	_int_isr_blink_cnt_196608_127
                                           _00628_DS_
000029   f187     jbclr   0x187, 0         	JBCLR	PFLAG,0
00002a   a02d     goto    0x2d             	GOTO	_00541_DS_
                                           ;;genSkipc:3291: created from rifx:013B5EFC
                                           ;	.line	654; "MC32F7361.c"	LED_GREEN_ON();
00002b   c794     bset    0x194, 0x3       	BSET	_IOP1bits,3
00002c   a03d     goto    0x3d             	GOTO	_00548_DS_
                                           ;;swapping arguments (AOP_TYPEs 1/3)
                                           ;;unsigned compare: left >= lit(0x7D1=2001), size=2
                                           _00541_DS_
                                           ;	.line	656; "MC32F7361.c"	else if (blink_cnt <= 2000)
00002d   3c07     movai   0x7              	MOVAI	0x07
00002e   4825     rsubar  0x25             	RSUBAR	(_int_isr_blink_cnt_196608_127 + 1)
00002f   e587     jbset   0x187, 0x2       	JBSET	PFLAG,2
000030   a033     goto    0x33             	GOTO	_00629_DS_
000031   3cd1     movai   0xd1             	MOVAI	0xd1
000032   4824     rsubar  0x24             	RSUBAR	_int_isr_blink_cnt_196608_127
                                           _00629_DS_
000033   f187     jbclr   0x187, 0         	JBCLR	PFLAG,0
000034   a037     goto    0x37             	GOTO	_00538_DS_
                                           ;;genSkipc:3291: created from rifx:013B5EFC
                                           ;	.line	658; "MC32F7361.c"	LED_GREEN_OFF();
000035   d794     bclr    0x194, 0x3       	BCLR	_IOP1bits,3
000036   a03d     goto    0x3d             	GOTO	_00548_DS_
                                           _00538_DS_
                                           ;	.line	662; "MC32F7361.c"	blink_cnt = 0;
000037   7624     clrr    0x24             	CLRR	_int_isr_blink_cnt_196608_127
000038   7625     clrr    0x25             	CLRR	(_int_isr_blink_cnt_196608_127 + 1)
000039   a03d     goto    0x3d             	GOTO	_00548_DS_
                                           _00547_DS_
                                           ;	.line	667; "MC32F7361.c"	blink_cnt = 0;
00003a   7624     clrr    0x24             	CLRR	_int_isr_blink_cnt_196608_127
00003b   7625     clrr    0x25             	CLRR	(_int_isr_blink_cnt_196608_127 + 1)
                                           ;	.line	668; "MC32F7361.c"	LED_GREEN_OFF();
00003c   d794     bclr    0x194, 0x3       	BCLR	_IOP1bits,3
                                           _00548_DS_
                                           ;	.line	673; "MC32F7361.c"	if (flag_is_dev_open)
00003d   e036     jbset   0x36, 0          	JBSET	_flag1,0
00003e   a05d     goto    0x5d             	GOTO	_00552_DS_
                                           ;	.line	675; "MC32F7361.c"	power_off_cnt++;
00003f   662a     incr    0x2a             	INCR	_power_off_cnt
000040   f587     jbclr   0x187, 0x2       	JBCLR	PFLAG,2
000041   662b     incr    0x2b             	INCR	(_power_off_cnt + 1)
000042   f587     jbclr   0x187, 0x2       	JBCLR	PFLAG,2
000043   662c     incr    0x2c             	INCR	(_power_off_cnt + 2)
000044   f587     jbclr   0x187, 0x2       	JBCLR	PFLAG,2
000045   662d     incr    0x2d             	INCR	(_power_off_cnt + 3)
                                           ;;unsigned compare: left < lit(0x518C4=334020), size=4
                                           ;	.line	677; "MC32F7361.c"	if (power_off_cnt >= 334020) // 6min
000046   3c00     movai   0                	MOVAI	0x00
000047   482d     rsubar  0x2d             	RSUBAR	(_power_off_cnt + 3)
000048   e587     jbset   0x187, 0x2       	JBSET	PFLAG,2
000049   a054     goto    0x54             	GOTO	_00630_DS_
00004a   3c05     movai   0x5              	MOVAI	0x05
00004b   482c     rsubar  0x2c             	RSUBAR	(_power_off_cnt + 2)
00004c   e587     jbset   0x187, 0x2       	JBSET	PFLAG,2
00004d   a054     goto    0x54             	GOTO	_00630_DS_
00004e   3c18     movai   0x18             	MOVAI	0x18
00004f   482b     rsubar  0x2b             	RSUBAR	(_power_off_cnt + 1)
000050   e587     jbset   0x187, 0x2       	JBSET	PFLAG,2
000051   a054     goto    0x54             	GOTO	_00630_DS_
000052   3cc4     movai   0xc4             	MOVAI	0xc4
000053   482a     rsubar  0x2a             	RSUBAR	_power_off_cnt
                                           _00630_DS_
000054   e187     jbset   0x187, 0         	JBSET	PFLAG,0
000055   a061     goto    0x61             	GOTO	_00553_DS_
                                           ;;genSkipc:3291: created from rifx:013B5EFC
                                           ;	.line	679; "MC32F7361.c"	power_off_cnt = 0;
000056   762a     clrr    0x2a             	CLRR	_power_off_cnt
000057   762b     clrr    0x2b             	CLRR	(_power_off_cnt + 1)
000058   762c     clrr    0x2c             	CLRR	(_power_off_cnt + 2)
000059   762d     clrr    0x2d             	CLRR	(_power_off_cnt + 3)
                                           ;	.line	680; "MC32F7361.c"	flag_is_dev_open = 0;
00005a   d036     bclr    0x36, 0          	BCLR	_flag1,0
                                           ;	.line	681; "MC32F7361.c"	flag_is_enable_into_low_power = 1; // 
00005b   c836     bset    0x36, 0x4        	BSET	_flag1,4
00005c   a061     goto    0x61             	GOTO	_00553_DS_
                                           _00552_DS_
                                           ;	.line	688; "MC32F7361.c"	power_off_cnt = 0;
00005d   762a     clrr    0x2a             	CLRR	_power_off_cnt
00005e   762b     clrr    0x2b             	CLRR	(_power_off_cnt + 1)
00005f   762c     clrr    0x2c             	CLRR	(_power_off_cnt + 2)
000060   762d     clrr    0x2d             	CLRR	(_power_off_cnt + 3)
                                           _00553_DS_
                                           ;	.line	694; "MC32F7361.c"	if (0 == flag_is_enable_into_low_power &&
000061   f836     jbclr   0x36, 0x4        	JBCLR	_flag1,4
000062   a076     goto    0x76             	GOTO	_00557_DS_
                                           ;	.line	695; "MC32F7361.c"	0 == flag_is_dev_open &&
000063   f036     jbclr   0x36, 0          	JBCLR	_flag1,0
000064   a076     goto    0x76             	GOTO	_00557_DS_
                                           ;	.line	696; "MC32F7361.c"	0 == flag_is_in_charging)
000065   f236     jbclr   0x36, 0x1        	JBCLR	_flag1,1
000066   a076     goto    0x76             	GOTO	_00557_DS_
                                           ;	.line	699; "MC32F7361.c"	into_low_power_cnt++;
000067   6626     incr    0x26             	INCR	_int_isr_into_low_power_cnt_196608_143
000068   f587     jbclr   0x187, 0x2       	JBCLR	PFLAG,2
000069   6627     incr    0x27             	INCR	(_int_isr_into_low_power_cnt_196608_143 + 1)
                                           ;;unsigned compare: left < lit(0x3E8=1000), size=2
                                           ;	.line	700; "MC32F7361.c"	if (into_low_power_cnt >= 1000) // xx ms
00006a   3c03     movai   0x3              	MOVAI	0x03
00006b   4827     rsubar  0x27             	RSUBAR	(_int_isr_into_low_power_cnt_196608_143 + 1)
00006c   e587     jbset   0x187, 0x2       	JBSET	PFLAG,2
00006d   a070     goto    0x70             	GOTO	_00631_DS_
00006e   3ce8     movai   0xe8             	MOVAI	0xe8
00006f   4826     rsubar  0x26             	RSUBAR	_int_isr_into_low_power_cnt_196608_143
                                           _00631_DS_
000070   e187     jbset   0x187, 0         	JBSET	PFLAG,0
000071   a078     goto    0x78             	GOTO	_00558_DS_
                                           ;;genSkipc:3291: created from rifx:013B5EFC
                                           ;	.line	702; "MC32F7361.c"	into_low_power_cnt = 0;
000072   7626     clrr    0x26             	CLRR	_int_isr_into_low_power_cnt_196608_143
000073   7627     clrr    0x27             	CLRR	(_int_isr_into_low_power_cnt_196608_143 + 1)
                                           ;	.line	703; "MC32F7361.c"	flag_is_enable_into_low_power = 1;
000074   c836     bset    0x36, 0x4        	BSET	_flag1,4
000075   a078     goto    0x78             	GOTO	_00558_DS_
                                           _00557_DS_
                                           ;	.line	708; "MC32F7361.c"	into_low_power_cnt = 0;
000076   7626     clrr    0x26             	CLRR	_int_isr_into_low_power_cnt_196608_143
000077   7627     clrr    0x27             	CLRR	(_int_isr_into_low_power_cnt_196608_143 + 1)
                                           _00558_DS_
                                           ;	.line	719; "MC32F7361.c"	if (flag_is_in_charging && 0 == flag_is_full_charged)
000078   e236     jbset   0x36, 0x1        	JBSET	_flag1,1
000079   a08b     goto    0x8b             	GOTO	_00564_DS_
00007a   f436     jbclr   0x36, 0x2        	JBCLR	_flag1,2
00007b   a08b     goto    0x8b             	GOTO	_00564_DS_
                                           ;	.line	721; "MC32F7361.c"	cut_down_charge_cnt++;
00007c   6628     incr    0x28             	INCR	_int_isr_cut_down_charge_cnt_196608_147
00007d   f587     jbclr   0x187, 0x2       	JBCLR	PFLAG,2
00007e   6629     incr    0x29             	INCR	(_int_isr_cut_down_charge_cnt_196608_147 + 1)
                                           ;;unsigned compare: left < lit(0x1388=5000), size=2
                                           ;	.line	722; "MC32F7361.c"	if (cut_down_charge_cnt >= 5000) // xx ms
00007f   3c13     movai   0x13             	MOVAI	0x13
000080   4829     rsubar  0x29             	RSUBAR	(_int_isr_cut_down_charge_cnt_196608_147 + 1)
000081   e587     jbset   0x187, 0x2       	JBSET	PFLAG,2
000082   a085     goto    0x85             	GOTO	_00632_DS_
000083   3c88     movai   0x88             	MOVAI	0x88
000084   4828     rsubar  0x28             	RSUBAR	_int_isr_cut_down_charge_cnt_196608_147
                                           _00632_DS_
000085   e187     jbset   0x187, 0         	JBSET	PFLAG,0
000086   a08e     goto    0x8e             	GOTO	_00565_DS_
                                           ;;genSkipc:3291: created from rifx:013B5EFC
                                           ;	.line	724; "MC32F7361.c"	cut_down_charge_cnt = 0;
000087   7628     clrr    0x28             	CLRR	_int_isr_cut_down_charge_cnt_196608_147
000088   7629     clrr    0x29             	CLRR	(_int_isr_cut_down_charge_cnt_196608_147 + 1)
                                           ;	.line	725; "MC32F7361.c"	flag_is_cut_down_charge = 1;
000089   ca36     bset    0x36, 0x5        	BSET	_flag1,5
00008a   a08e     goto    0x8e             	GOTO	_00565_DS_
                                           _00564_DS_
                                           ;	.line	730; "MC32F7361.c"	cut_down_charge_cnt = 0;
00008b   7628     clrr    0x28             	CLRR	_int_isr_cut_down_charge_cnt_196608_147
00008c   7629     clrr    0x29             	CLRR	(_int_isr_cut_down_charge_cnt_196608_147 + 1)
                                           ;	.line	731; "MC32F7361.c"	flag_is_cut_down_charge = 0; // 
00008d   da36     bclr    0x36, 0x5        	BCLR	_flag1,5
                                           _00565_DS_
                                           ;	.line	735; "MC32F7361.c"	T3IF = 0;
00008e   df8b     bclr    0x18b, 0x7       	BCLR	_INTFbits,7
                                           _00568_DS_
                                           ;	.line	743; "MC32F7361.c"	__endasm;
                                           	;
00008f   4433     swapar  0x33             	swapar	_statusbuf;
000090   5787     movra   0x187            	movra	_PFLAG;
000091   4632     swapr   0x32             	swapr	_abuf;
000092   4432     swapar  0x32             	swapar	_abuf;
                                           	
                                           END_OF_INTERRUPT
                                           ;	.line	744; "MC32F7361.c"	}
000093   000d     retie                    	RETIE	
                                           
                                           ;--------------------------------------------------------
                                           ; code
                                           ;--------------------------------------------------------
                                           code_MC32F7361	code
                                           ;***
                                           ;  pBlock Stats: dbName = M
                                           ;***
                                           ;entry:  _main	;Function start
                                           ; 2 exit points
                                           ;has an exit
                                           ;functions called:
                                           ;   _Sys_Init
                                           ;   _delay_ms
                                           ;   _delay_ms
                                           ;   _adc_get_val
                                           ;   _delay_ms
                                           ;   _delay_ms
                                           ;   _led_red_off
                                           ;   _led_blue_off
                                           ;   _adc_get_val
                                           ;   _key_event_handle
                                           ;   _led_blue_off
                                           ;   _led_red_off
                                           ;   _Sys_Init
                                           ;   _delay_ms
                                           ;   _delay_ms
                                           ;   _key_event_handle
                                           ;   _Sys_Init
                                           ;   _delay_ms
                                           ;   _delay_ms
                                           ;   _adc_get_val
                                           ;   _delay_ms
                                           ;   _delay_ms
                                           ;   _led_red_off
                                           ;   _led_blue_off
                                           ;   _adc_get_val
                                           ;   _key_event_handle
                                           ;   _led_blue_off
                                           ;   _led_red_off
                                           ;   _Sys_Init
                                           ;   _delay_ms
                                           ;   _delay_ms
                                           ;   _key_event_handle
                                           ;1 compiler assigned register :
                                           ;   STK00
                                           ;; Starting pCode block
                                           _main	;Function start
                                           ; 2 exit points
                                           ;	.line	384; "MC32F7361.c"	Sys_Init();
000094   81cb     call    0x1cb            	CALL	_Sys_Init
                                           ;	.line	396; "MC32F7361.c"	flag_is_enable_into_low_power = 1; // 
000095   c836     bset    0x36, 0x4        	BSET	_flag1,4
                                           _00422_DS_
                                           ;	.line	404; "MC32F7361.c"	if (0 == flag_is_in_charging)
000096   f236     jbclr   0x36, 0x1        	JBCLR	_flag1,1
000097   a0a3     goto    0xa3             	GOTO	_00371_DS_
                                           ;	.line	406; "MC32F7361.c"	if (CHARGE_SCAN_PIN)
000098   e990     jbset   0x190, 0x4       	JBSET	_IOP0bits,4
000099   a0ad     goto    0xad             	GOTO	_00372_DS_
                                           ;	.line	409; "MC32F7361.c"	delay_ms(100);
00009a   3c64     movai   0x64             	MOVAI	0x64
00009b   5606     movra   0x6              	MOVRA	STK00
00009c   3c00     movai   0                	MOVAI	0x00
00009d   82dc     call    0x2dc            	CALL	_delay_ms
                                           ;	.line	410; "MC32F7361.c"	if (CHARGE_SCAN_PIN)
00009e   e990     jbset   0x190, 0x4       	JBSET	_IOP0bits,4
00009f   a0ad     goto    0xad             	GOTO	_00372_DS_
                                           ;	.line	412; "MC32F7361.c"	flag_is_in_charging = 1;
0000a0   c236     bset    0x36, 0x1        	BSET	_flag1,1
                                           ;	.line	413; "MC32F7361.c"	P15D = 1; // 
0000a1   cb94     bset    0x194, 0x5       	BSET	_IOP1bits,5
0000a2   a0ad     goto    0xad             	GOTO	_00372_DS_
                                           _00371_DS_
                                           ;	.line	420; "MC32F7361.c"	if (0 == CHARGE_SCAN_PIN)
0000a3   f990     jbclr   0x190, 0x4       	JBCLR	_IOP0bits,4
0000a4   a0ad     goto    0xad             	GOTO	_00372_DS_
                                           ;	.line	423; "MC32F7361.c"	delay_ms(100);
0000a5   3c64     movai   0x64             	MOVAI	0x64
0000a6   5606     movra   0x6              	MOVRA	STK00
0000a7   3c00     movai   0                	MOVAI	0x00
0000a8   82dc     call    0x2dc            	CALL	_delay_ms
                                           ;	.line	424; "MC32F7361.c"	if (0 == CHARGE_SCAN_PIN)
0000a9   f990     jbclr   0x190, 0x4       	JBCLR	_IOP0bits,4
0000aa   a0ad     goto    0xad             	GOTO	_00372_DS_
                                           ;	.line	426; "MC32F7361.c"	flag_is_in_charging = 0;
0000ab   d236     bclr    0x36, 0x1        	BCLR	_flag1,1
                                           ;	.line	427; "MC32F7361.c"	flag_is_full_charged = 0;
0000ac   d436     bclr    0x36, 0x2        	BCLR	_flag1,2
                                           _00372_DS_
                                           ;	.line	433; "MC32F7361.c"	if (flag_is_in_charging)
0000ad   e236     jbset   0x36, 0x1        	JBSET	_flag1,1
0000ae   a0d7     goto    0xd7             	GOTO	_00388_DS_
                                           ;	.line	435; "MC32F7361.c"	adc_val = adc_get_val();
0000af   8216     call    0x216            	CALL	_adc_get_val
0000b0   562f     movra   0x2f             	MOVRA	(_adc_val + 1)
0000b1   5806     movar   0x6              	MOVAR	STK00
0000b2   562e     movra   0x2e             	MOVRA	_adc_val
                                           ;;unsigned compare: left < lit(0x875=2165), size=2
                                           ;	.line	445; "MC32F7361.c"	if (adc_val >= 2165) //  4.23V ======================================
0000b3   3c08     movai   0x8              	MOVAI	0x08
0000b4   482f     rsubar  0x2f             	RSUBAR	(_adc_val + 1)
0000b5   e587     jbset   0x187, 0x2       	JBSET	PFLAG,2
0000b6   a0b9     goto    0xb9             	GOTO	_00522_DS_
0000b7   3c75     movai   0x75             	MOVAI	0x75
0000b8   482e     rsubar  0x2e             	RSUBAR	_adc_val
                                           _00522_DS_
0000b9   e187     jbset   0x187, 0         	JBSET	PFLAG,0
0000ba   a0c2     goto    0xc2             	GOTO	_00374_DS_
                                           ;;genSkipc:3291: created from rifx:013B5EFC
                                           ;	.line	447; "MC32F7361.c"	flag_is_full_charged = 1;
0000bb   c436     bset    0x36, 0x2        	BSET	_flag1,2
                                           ;	.line	448; "MC32F7361.c"	P15D = 0; // 
0000bc   db94     bclr    0x194, 0x5       	BCLR	_IOP1bits,5
                                           ;	.line	450; "MC32F7361.c"	delay_ms(10000);
0000bd   3c10     movai   0x10             	MOVAI	0x10
0000be   5606     movra   0x6              	MOVRA	STK00
0000bf   3c27     movai   0x27             	MOVAI	0x27
0000c0   82dc     call    0x2dc            	CALL	_delay_ms
0000c1   a0c4     goto    0xc4             	GOTO	_00375_DS_
                                           _00374_DS_
                                           ;	.line	456; "MC32F7361.c"	flag_is_full_charged = 0;
0000c2   d436     bclr    0x36, 0x2        	BCLR	_flag1,2
                                           ;	.line	457; "MC32F7361.c"	P15D = 1; // 
0000c3   cb94     bset    0x194, 0x5       	BSET	_IOP1bits,5
                                           _00375_DS_
                                           ;	.line	460; "MC32F7361.c"	if (flag_is_cut_down_charge && 0 == flag_is_full_charged)
0000c4   ea36     jbset   0x36, 0x5        	JBSET	_flag1,5
0000c5   a0d1     goto    0xd1             	GOTO	_00381_DS_
0000c6   f436     jbclr   0x36, 0x2        	JBCLR	_flag1,2
0000c7   a0d1     goto    0xd1             	GOTO	_00381_DS_
                                           ;	.line	462; "MC32F7361.c"	flag_is_cut_down_charge = 0;
0000c8   da36     bclr    0x36, 0x5        	BCLR	_flag1,5
                                           ;	.line	463; "MC32F7361.c"	P15D = 0; // 
0000c9   db94     bclr    0x194, 0x5       	BCLR	_IOP1bits,5
                                           ;	.line	464; "MC32F7361.c"	delay_ms(10);
0000ca   3c0a     movai   0xa              	MOVAI	0x0a
0000cb   5606     movra   0x6              	MOVRA	STK00
0000cc   3c00     movai   0                	MOVAI	0x00
0000cd   82dc     call    0x2dc            	CALL	_delay_ms
                                           ;	.line	465; "MC32F7361.c"	if (CHARGE_SCAN_PIN)
0000ce   e990     jbset   0x190, 0x4       	JBSET	_IOP0bits,4
0000cf   a0d1     goto    0xd1             	GOTO	_00381_DS_
                                           ;	.line	468; "MC32F7361.c"	P15D = 1; // 
0000d0   cb94     bset    0x194, 0x5       	BSET	_IOP1bits,5
                                           _00381_DS_
                                           ;	.line	473; "MC32F7361.c"	LED_RED_OFF();
0000d1   81e1     call    0x1e1            	CALL	_led_red_off
                                           ;	.line	474; "MC32F7361.c"	LED_BLUE_OFF();
0000d2   81da     call    0x1da            	CALL	_led_blue_off
                                           ;	.line	475; "MC32F7361.c"	flag_is_dev_open = 0;
0000d3   d036     bclr    0x36, 0          	BCLR	_flag1,0
                                           ;	.line	476; "MC32F7361.c"	flag_is_enable_into_low_power = 1; // 
0000d4   c836     bset    0x36, 0x4        	BSET	_flag1,4
                                           ;	.line	478; "MC32F7361.c"	led_mode = LED_MODE_RED_AND_BLUE; // +
0000d5   3c02     movai   0x2              	MOVAI	0x02
0000d6   5635     movra   0x35             	MOVRA	_led_mode
                                           _00388_DS_
                                           ;	.line	481; "MC32F7361.c"	if (flag_is_dev_open && 0 == flag_is_in_charging)
0000d7   e036     jbset   0x36, 0          	JBSET	_flag1,0
0000d8   a0f3     goto    0xf3             	GOTO	_00394_DS_
0000d9   f236     jbclr   0x36, 0x1        	JBCLR	_flag1,1
0000da   a0f3     goto    0xf3             	GOTO	_00394_DS_
                                           ;	.line	484; "MC32F7361.c"	adc_val = adc_get_val();
0000db   8216     call    0x216            	CALL	_adc_get_val
0000dc   562f     movra   0x2f             	MOVRA	(_adc_val + 1)
0000dd   5806     movar   0x6              	MOVAR	STK00
0000de   562e     movra   0x2e             	MOVRA	_adc_val
                                           ;;unsigned compare: left < lit(0x699=1689), size=2
                                           ;	.line	487; "MC32F7361.c"	if (adc_val < 1689) // 3.3V
0000df   3c06     movai   0x6              	MOVAI	0x06
0000e0   482f     rsubar  0x2f             	RSUBAR	(_adc_val + 1)
0000e1   e587     jbset   0x187, 0x2       	JBSET	PFLAG,2
0000e2   a0e5     goto    0xe5             	GOTO	_00523_DS_
0000e3   3c99     movai   0x99             	MOVAI	0x99
0000e4   482e     rsubar  0x2e             	RSUBAR	_adc_val
                                           _00523_DS_
0000e5   f187     jbclr   0x187, 0         	JBCLR	PFLAG,0
0000e6   a0e8     goto    0xe8             	GOTO	_00390_DS_
                                           ;;genSkipc:3291: created from rifx:013B5EFC
                                           ;	.line	489; "MC32F7361.c"	flag_is_power_low = 1;
0000e7   c636     bset    0x36, 0x3        	BSET	_flag1,3
                                           ;;unsigned compare: left < lit(0x5CC=1484), size=2
                                           _00390_DS_
                                           ;	.line	494; "MC32F7361.c"	if (adc_val < 1484) // 2.8984V
0000e8   3c05     movai   0x5              	MOVAI	0x05
0000e9   482f     rsubar  0x2f             	RSUBAR	(_adc_val + 1)
0000ea   e587     jbset   0x187, 0x2       	JBSET	PFLAG,2
0000eb   a0ee     goto    0xee             	GOTO	_00524_DS_
0000ec   3ccc     movai   0xcc             	MOVAI	0xcc
0000ed   482e     rsubar  0x2e             	RSUBAR	_adc_val
                                           _00524_DS_
0000ee   f187     jbclr   0x187, 0         	JBCLR	PFLAG,0
0000ef   a0f4     goto    0xf4             	GOTO	_00395_DS_
                                           ;;genSkipc:3291: created from rifx:013B5EFC
                                           ;	.line	496; "MC32F7361.c"	flag_is_dev_open = 0;              // 
0000f0   d036     bclr    0x36, 0          	BCLR	_flag1,0
                                           ;	.line	497; "MC32F7361.c"	flag_is_enable_into_low_power = 1; // 
0000f1   c836     bset    0x36, 0x4        	BSET	_flag1,4
0000f2   a0f4     goto    0xf4             	GOTO	_00395_DS_
                                           _00394_DS_
                                           ;	.line	502; "MC32F7361.c"	flag_is_power_low = 0;
0000f3   d636     bclr    0x36, 0x3        	BCLR	_flag1,3
                                           _00395_DS_
                                           ;	.line	505; "MC32F7361.c"	key_event_handle();
0000f4   8141     call    0x141            	CALL	_key_event_handle
                                           ;	.line	508; "MC32F7361.c"	if (0 == flag_is_dev_open &&       // 
0000f5   f036     jbclr   0x36, 0          	JBCLR	_flag1,0
0000f6   a13e     goto    0x13e            	GOTO	_00417_DS_
                                           ;	.line	509; "MC32F7361.c"	0 == flag_is_in_charging &&    // 
0000f7   f236     jbclr   0x36, 0x1        	JBCLR	_flag1,1
0000f8   a13e     goto    0x13e            	GOTO	_00417_DS_
                                           ;	.line	510; "MC32F7361.c"	KEY_SCAN_PIN &&                /* () */
0000f9   e190     jbset   0x190, 0         	JBSET	_IOP0bits,0
0000fa   a13e     goto    0x13e            	GOTO	_00417_DS_
                                           ;	.line	511; "MC32F7361.c"	flag_is_enable_into_low_power) /*  */
0000fb   e836     jbset   0x36, 0x4        	JBSET	_flag1,4
0000fc   a13e     goto    0x13e            	GOTO	_00417_DS_
                                           ;	.line	516; "MC32F7361.c"	GIE = 0;      // 
0000fd   df88     bclr    0x188, 0x7       	BCLR	_MCRbits,7
                                           ;	.line	517; "MC32F7361.c"	DRVCR = 0x80; // IO
0000fe   3c80     movai   0x80             	MOVAI	0x80
0000ff   578c     movra   0x18c            	MOVRA	_DRVCR
                                           ;	.line	518; "MC32F7361.c"	LED_BLUE_OFF();
000100   81da     call    0x1da            	CALL	_led_blue_off
                                           ;	.line	519; "MC32F7361.c"	LED_GREEN_OFF();
000101   d794     bclr    0x194, 0x3       	BCLR	_IOP1bits,3
                                           ;	.line	520; "MC32F7361.c"	LED_RED_OFF();
000102   81e1     call    0x1e1            	CALL	_led_red_off
                                           ;	.line	521; "MC32F7361.c"	P15D = 0; // 
000103   db94     bclr    0x194, 0x5       	BCLR	_IOP1bits,5
                                           ;	.line	528; "MC32F7361.c"	T3EN = 0;
000104   dfa4     bclr    0x1a4, 0x7       	BCLR	_T3CRbits,7
                                           ;	.line	529; "MC32F7361.c"	T3IE = 0;
000105   df8a     bclr    0x18a, 0x7       	BCLR	_INTEbits,7
                                           ;	.line	532; "MC32F7361.c"	ADCHS3 = 0;
000106   dfb0     bclr    0x1b0, 0x7       	BCLR	_ADCR0bits,7
                                           ;	.line	533; "MC32F7361.c"	ADCHS2 = 0;
000107   ddb0     bclr    0x1b0, 0x6       	BCLR	_ADCR0bits,6
                                           ;	.line	534; "MC32F7361.c"	ADCHS1 = 0;
000108   dbb0     bclr    0x1b0, 0x5       	BCLR	_ADCR0bits,5
                                           ;	.line	535; "MC32F7361.c"	ADCHS0 = 0;
000109   d9b0     bclr    0x1b0, 0x4       	BCLR	_ADCR0bits,4
                                           ;	.line	536; "MC32F7361.c"	ADEN = 0; // adc
00010a   d1b0     bclr    0x1b0, 0         	BCLR	_ADCR0bits,0
                                           ;	.line	539; "MC32F7361.c"	P00KE = 1;
00010b   c18d     bset    0x18d, 0         	BSET	_P0KBCRbits,0
                                           ;	.line	544; "MC32F7361.c"	P04KE = 1;
00010c   c98d     bset    0x18d, 0x4       	BSET	_P0KBCRbits,4
                                           ;	.line	546; "MC32F7361.c"	KBIF = 0;
00010d   d98b     bclr    0x18b, 0x4       	BCLR	_INTFbits,4
                                           ;	.line	547; "MC32F7361.c"	KBIE = 1;
00010e   c98a     bset    0x18a, 0x4       	BSET	_INTEbits,4
                                           ;	.line	548; "MC32F7361.c"	LVDEN = 0;
00010f   dfaf     bclr    0x1af, 0x7       	BCLR	_LVDCRbits,7
                                           ;	.line	549; "MC32F7361.c"	HFEN = 0; // 
000110   d1ae     bclr    0x1ae, 0         	BCLR	_OSCMRbits,0
                                           ;	.line	550; "MC32F7361.c"	LFEN = 0; // 
000111   d3ae     bclr    0x1ae, 0x1       	BCLR	_OSCMRbits,1
                                           ;	.line	552; "MC32F7361.c"	Nop();
000112   0000     nop                      	nop	
                                           ;	.line	553; "MC32F7361.c"	Nop();
000113   0000     nop                      	nop	
                                           ;	.line	554; "MC32F7361.c"	Stop();
000114   000b     stop                     	stop	
                                           ;	.line	555; "MC32F7361.c"	Nop();
000115   0000     nop                      	nop	
                                           ;	.line	556; "MC32F7361.c"	Nop();
000116   0000     nop                      	nop	
                                           ;	.line	557; "MC32F7361.c"	HFEN = 1; // 
000117   c1ae     bset    0x1ae, 0         	BSET	_OSCMRbits,0
                                           ;	.line	558; "MC32F7361.c"	LVDEN = 1;
000118   cfaf     bset    0x1af, 0x7       	BSET	_LVDCRbits,7
                                           ;	.line	559; "MC32F7361.c"	P00KE = 0;
000119   d18d     bclr    0x18d, 0         	BCLR	_P0KBCRbits,0
                                           ;	.line	563; "MC32F7361.c"	P04KE = 0;
00011a   d98d     bclr    0x18d, 0x4       	BCLR	_P0KBCRbits,4
                                           ;	.line	565; "MC32F7361.c"	KBIE = 0;
00011b   d98a     bclr    0x18a, 0x4       	BCLR	_INTEbits,4
                                           ;	.line	566; "MC32F7361.c"	KBIF = 0;
00011c   d98b     bclr    0x18b, 0x4       	BCLR	_INTFbits,4
                                           ;	.line	568; "MC32F7361.c"	Sys_Init(); // 0,
00011d   81cb     call    0x1cb            	CALL	_Sys_Init
                                           ;	.line	569; "MC32F7361.c"	delay_ms(1);
00011e   3c01     movai   0x1              	MOVAI	0x01
00011f   5606     movra   0x6              	MOVRA	STK00
000120   3c00     movai   0                	MOVAI	0x00
000121   82dc     call    0x2dc            	CALL	_delay_ms
                                           ;	.line	570; "MC32F7361.c"	GIE = 1;
000122   cf88     bset    0x188, 0x7       	BSET	_MCRbits,7
                                           ;	.line	576; "MC32F7361.c"	if (0 == KEY_SCAN_PIN) // 
000123   f190     jbclr   0x190, 0         	JBCLR	_IOP0bits,0
000124   a13e     goto    0x13e            	GOTO	_00417_DS_
                                           ;	.line	583; "MC32F7361.c"	volatile u8 key_press_cnt = 0;
000125   7622     clrr    0x22             	CLRR	_main_key_press_cnt_262144_118
                                           ;	.line	585; "MC32F7361.c"	T3IE = 0;  // 
000126   df8a     bclr    0x18a, 0x7       	BCLR	_INTEbits,7
                                           ;	.line	586; "MC32F7361.c"	T3EN = 0;  // 
000127   dfa4     bclr    0x1a4, 0x7       	BCLR	_T3CRbits,7
                                           ;	.line	587; "MC32F7361.c"	T3CNT = 0; // 
000128   77a5     clrr    0x1a5            	CLRR	_T3CNT
                                           _00409_DS_
                                           ;	.line	589; "MC32F7361.c"	while (0 == KEY_SCAN_PIN)
000129   f190     jbclr   0x190, 0         	JBCLR	_IOP0bits,0
00012a   a135     goto    0x135            	GOTO	_00411_DS_
                                           ;;unsigned compare: left < lit(0xFF=255), size=1
                                           ;	.line	591; "MC32F7361.c"	if (key_press_cnt < 255)
00012b   3cff     movai   0xff             	MOVAI	0xff
00012c   4822     rsubar  0x22             	RSUBAR	_main_key_press_cnt_262144_118
00012d   f187     jbclr   0x187, 0         	JBCLR	PFLAG,0
00012e   a130     goto    0x130            	GOTO	_00408_DS_
                                           ;;genSkipc:3291: created from rifx:013B5EFC
                                           ;	.line	593; "MC32F7361.c"	key_press_cnt++;
00012f   6622     incr    0x22             	INCR	_main_key_press_cnt_262144_118
                                           _00408_DS_
                                           ;	.line	596; "MC32F7361.c"	delay_ms(10);
000130   3c0a     movai   0xa              	MOVAI	0x0a
000131   5606     movra   0x6              	MOVRA	STK00
000132   3c00     movai   0                	MOVAI	0x00
000133   82dc     call    0x2dc            	CALL	_delay_ms
000134   a129     goto    0x129            	GOTO	_00409_DS_
                                           ;;unsigned compare: left < lit(0x4B=75), size=1
                                           _00411_DS_
                                           ;	.line	599; "MC32F7361.c"	if (key_press_cnt < 75) // 750ms
000135   3c4b     movai   0x4b             	MOVAI	0x4b
000136   4822     rsubar  0x22             	RSUBAR	_main_key_press_cnt_262144_118
000137   f187     jbclr   0x187, 0         	JBCLR	PFLAG,0
000138   a13c     goto    0x13c            	GOTO	_00413_DS_
                                           ;;genSkipc:3291: created from rifx:013B5EFC
                                           ;	.line	601; "MC32F7361.c"	key_event = KEY_EVENT_PRESS;
000139   3c01     movai   0x1              	MOVAI	0x01
00013a   5631     movra   0x31             	MOVRA	_key_event
                                           ;	.line	602; "MC32F7361.c"	key_event_handle();
00013b   8141     call    0x141            	CALL	_key_event_handle
                                           _00413_DS_
                                           ;	.line	605; "MC32F7361.c"	T3IE = 1; // 
00013c   cf8a     bset    0x18a, 0x7       	BSET	_INTEbits,7
                                           ;	.line	606; "MC32F7361.c"	T3EN = 1; // 
00013d   cfa4     bset    0x1a4, 0x7       	BSET	_T3CRbits,7
                                           _00417_DS_
                                           ;	.line	615; "MC32F7361.c"	__endasm;
                                           	;
00013e   000e     clrwdt                   	clrwdt;
                                           	
00013f   a096     goto    0x96             	GOTO	_00422_DS_
                                           ;	.line	617; "MC32F7361.c"	}
000140   000c     return                   	RETURN	
                                           ; exit point of _main
                                           
                                           ;***
                                           ;  pBlock Stats: dbName = C
                                           ;***
                                           ;entry:  _key_event_handle	;Function start
                                           ; 2 exit points
                                           ;has an exit
                                           ;functions called:
                                           ;   _led_red_off
                                           ;   _led_blue_on
                                           ;   _led_red_on
                                           ;   _led_blue_on
                                           ;   _led_blue_off
                                           ;   _led_red_on
                                           ;   _led_red_on
                                           ;   _led_red_off
                                           ;   _led_blue_off
                                           ;   _led_red_off
                                           ;   _led_blue_on
                                           ;   _led_red_on
                                           ;   _led_blue_on
                                           ;   _led_blue_off
                                           ;   _led_red_on
                                           ;   _led_red_on
                                           ;   _led_red_off
                                           ;   _led_blue_off
                                           ;; Starting pCode block
                                           _key_event_handle	;Function start
                                           ; 2 exit points
                                           ;	.line	304; "MC32F7361.c"	if (flag_is_in_charging)
000141   e236     jbset   0x36, 0x1        	JBSET	_flag1,1
000142   a145     goto    0x145            	GOTO	_00311_DS_
                                           ;	.line	307; "MC32F7361.c"	key_event = KEY_EVENT_NONE;
000143   7631     clrr    0x31             	CLRR	_key_event
                                           ;	.line	308; "MC32F7361.c"	return;
000144   a180     goto    0x180            	GOTO	_00357_DS_
                                           _00311_DS_
                                           ;	.line	311; "MC32F7361.c"	if (KEY_EVENT_PRESS == key_event)
000145   5831     movar   0x31             	MOVAR	_key_event
000146   3901     xorai   0x1              	XORAI	0x01
000147   e587     jbset   0x187, 0x2       	JBSET	PFLAG,2
000148   a175     goto    0x175            	GOTO	_00355_DS_
                                           ;	.line	313; "MC32F7361.c"	if (flag_is_dev_open)
000149   e036     jbset   0x36, 0          	JBSET	_flag1,0
00014a   a16f     goto    0x16f            	GOTO	_00342_DS_
                                           ;	.line	315; "MC32F7361.c"	if (LED_MODE_RED == led_mode)
00014b   3c00     movai   0                	MOVAI	0x00
00014c   5c35     orar    0x35             	ORAR	_led_mode
00014d   e587     jbset   0x187, 0x2       	JBSET	PFLAG,2
00014e   a155     goto    0x155            	GOTO	_00336_DS_
                                           ;	.line	318; "MC32F7361.c"	LED_BLUE_TIMER_DATA = LED_BLUE_LUMINANCE;
00014f   779b     clrr    0x19b            	CLRR	_T0DATA
                                           ;	.line	319; "MC32F7361.c"	LED_RED_OFF(); 
000150   81e1     call    0x1e1            	CALL	_led_red_off
                                           ;	.line	320; "MC32F7361.c"	LED_BLUE_ON(); 
000151   81de     call    0x1de            	CALL	_led_blue_on
                                           ;	.line	321; "MC32F7361.c"	led_mode = LED_MODE_BLUE;
000152   3c01     movai   0x1              	MOVAI	0x01
000153   5635     movra   0x35             	MOVRA	_led_mode
000154   a16a     goto    0x16a            	GOTO	_00337_DS_
                                           _00336_DS_
                                           ;	.line	323; "MC32F7361.c"	else if (LED_MODE_BLUE == led_mode)
000155   5835     movar   0x35             	MOVAR	_led_mode
000156   3901     xorai   0x1              	XORAI	0x01
000157   e587     jbset   0x187, 0x2       	JBSET	PFLAG,2
000158   a161     goto    0x161            	GOTO	_00333_DS_
                                           ;	.line	326; "MC32F7361.c"	LED_RED_TIMER_DATA = LED_RED_BLUE_LUMINANCE;
000159   3c5a     movai   0x5a             	MOVAI	0x5a
00015a   579f     movra   0x19f            	MOVRA	_T1DATA
                                           ;	.line	327; "MC32F7361.c"	LED_BLUE_TIMER_DATA = LED_BLUE_LUMINANCE;
00015b   779b     clrr    0x19b            	CLRR	_T0DATA
                                           ;	.line	328; "MC32F7361.c"	LED_RED_ON();
00015c   81e5     call    0x1e5            	CALL	_led_red_on
                                           ;	.line	329; "MC32F7361.c"	LED_BLUE_ON();
00015d   81de     call    0x1de            	CALL	_led_blue_on
                                           ;	.line	330; "MC32F7361.c"	led_mode = LED_MODE_RED_AND_BLUE;                 
00015e   3c02     movai   0x2              	MOVAI	0x02
00015f   5635     movra   0x35             	MOVRA	_led_mode
000160   a16a     goto    0x16a            	GOTO	_00337_DS_
                                           _00333_DS_
                                           ;	.line	332; "MC32F7361.c"	else if (LED_MODE_RED_AND_BLUE == led_mode)
000161   5835     movar   0x35             	MOVAR	_led_mode
000162   3902     xorai   0x2              	XORAI	0x02
000163   e587     jbset   0x187, 0x2       	JBSET	PFLAG,2
000164   a16a     goto    0x16a            	GOTO	_00337_DS_
                                           ;	.line	335; "MC32F7361.c"	LED_RED_TIMER_DATA = LED_RED_LUMINANCE;
000165   3c5a     movai   0x5a             	MOVAI	0x5a
000166   579f     movra   0x19f            	MOVRA	_T1DATA
                                           ;	.line	336; "MC32F7361.c"	LED_BLUE_OFF();
000167   81da     call    0x1da            	CALL	_led_blue_off
                                           ;	.line	337; "MC32F7361.c"	LED_RED_ON();
000168   81e5     call    0x1e5            	CALL	_led_red_on
                                           ;	.line	338; "MC32F7361.c"	led_mode = LED_MODE_RED;
000169   7635     clrr    0x35             	CLRR	_led_mode
                                           _00337_DS_
                                           ;	.line	341; "MC32F7361.c"	power_off_cnt = 0; // 
00016a   762a     clrr    0x2a             	CLRR	_power_off_cnt
00016b   762b     clrr    0x2b             	CLRR	(_power_off_cnt + 1)
00016c   762c     clrr    0x2c             	CLRR	(_power_off_cnt + 2)
00016d   762d     clrr    0x2d             	CLRR	(_power_off_cnt + 3)
00016e   a17f     goto    0x17f            	GOTO	_00356_DS_
                                           _00342_DS_
                                           ;	.line	346; "MC32F7361.c"	LED_RED_TIMER_DATA = LED_RED_LUMINANCE; 
00016f   3c5a     movai   0x5a             	MOVAI	0x5a
000170   579f     movra   0x19f            	MOVRA	_T1DATA
                                           ;	.line	347; "MC32F7361.c"	LED_RED_ON(); 
000171   81e5     call    0x1e5            	CALL	_led_red_on
                                           ;	.line	348; "MC32F7361.c"	led_mode = LED_MODE_RED; // 
000172   7635     clrr    0x35             	CLRR	_led_mode
                                           ;	.line	349; "MC32F7361.c"	flag_is_dev_open = 1;
000173   c036     bset    0x36, 0          	BSET	_flag1,0
000174   a17f     goto    0x17f            	GOTO	_00356_DS_
                                           _00355_DS_
                                           ;	.line	352; "MC32F7361.c"	else if (KEY_EVENT_HOLD == key_event)
000175   5831     movar   0x31             	MOVAR	_key_event
000176   3902     xorai   0x2              	XORAI	0x02
000177   e587     jbset   0x187, 0x2       	JBSET	PFLAG,2
000178   a17f     goto    0x17f            	GOTO	_00356_DS_
                                           ;	.line	354; "MC32F7361.c"	if (flag_is_dev_open)
000179   e036     jbset   0x36, 0          	JBSET	_flag1,0
00017a   a17e     goto    0x17e            	GOTO	_00351_DS_
                                           ;	.line	356; "MC32F7361.c"	LED_RED_OFF();
00017b   81e1     call    0x1e1            	CALL	_led_red_off
                                           ;	.line	357; "MC32F7361.c"	LED_BLUE_OFF();
00017c   81da     call    0x1da            	CALL	_led_blue_off
                                           ;	.line	358; "MC32F7361.c"	flag_is_dev_open = 0;
00017d   d036     bclr    0x36, 0          	BCLR	_flag1,0
                                           _00351_DS_
                                           ;	.line	369; "MC32F7361.c"	flag_is_enable_into_low_power = 1; // 
00017e   c836     bset    0x36, 0x4        	BSET	_flag1,4
                                           _00356_DS_
                                           ;	.line	373; "MC32F7361.c"	key_event = KEY_EVENT_NONE;
00017f   7631     clrr    0x31             	CLRR	_key_event
                                           _00357_DS_
                                           ;	.line	374; "MC32F7361.c"	}
000180   000c     return                   	RETURN	
                                           ; exit point of _key_event_handle
                                           
                                           ;***
                                           ;  pBlock Stats: dbName = C
                                           ;***
                                           ;entry:  _key_scan	;Function start
                                           ; 2 exit points
                                           ;has an exit
                                           ;; Starting pCode block
                                           _key_scan	;Function start
                                           ; 2 exit points
                                           ;	.line	226; "MC32F7361.c"	volatile u8 cur_key_id = KEY_ID_NONE;
000181   761c     clrr    0x1c             	CLRR	_key_scan_cur_key_id_65536_46
                                           ;	.line	229; "MC32F7361.c"	if (0 == KEY_SCAN_PIN)
000182   f190     jbclr   0x190, 0         	JBCLR	_IOP0bits,0
000183   a187     goto    0x187            	GOTO	_00226_DS_
                                           ;	.line	231; "MC32F7361.c"	cur_key_id = KEY_ID_BUTTOM;
000184   3c01     movai   0x1              	MOVAI	0x01
000185   561c     movra   0x1c             	MOVRA	_key_scan_cur_key_id_65536_46
000186   a188     goto    0x188            	GOTO	_00227_DS_
                                           _00226_DS_
                                           ;	.line	235; "MC32F7361.c"	cur_key_id = KEY_ID_NONE;
000187   761c     clrr    0x1c             	CLRR	_key_scan_cur_key_id_65536_46
                                           _00227_DS_
                                           ;	.line	238; "MC32F7361.c"	if (cur_key_id != filter_key_id)
000188   581e     movar   0x1e             	MOVAR	_key_scan_filter_key_id_65536_46
000189   401c     xorar   0x1c             	XORAR	_key_scan_cur_key_id_65536_46
00018a   e587     jbset   0x187, 0x2       	JBSET	PFLAG,2
00018b   a18d     goto    0x18d            	GOTO	_00303_DS_
00018c   a191     goto    0x191            	GOTO	_00229_DS_
                                           _00303_DS_
                                           ;	.line	241; "MC32F7361.c"	filter_cnt = 0;
00018d   761d     clrr    0x1d             	CLRR	_key_scan_filter_cnt_65536_46
                                           ;	.line	242; "MC32F7361.c"	filter_key_id = cur_key_id;
00018e   581c     movar   0x1c             	MOVAR	_key_scan_cur_key_id_65536_46
00018f   561e     movra   0x1e             	MOVRA	_key_scan_filter_key_id_65536_46
                                           ;	.line	243; "MC32F7361.c"	return;
000190   a1ca     goto    0x1ca            	GOTO	_00253_DS_
                                           ;;unsigned compare: left < lit(0x2=2), size=1
                                           _00229_DS_
                                           ;	.line	246; "MC32F7361.c"	if (filter_cnt < KEY_FILTER_TIMES)
000191   3c02     movai   0x2              	MOVAI	0x02
000192   481d     rsubar  0x1d             	RSUBAR	_key_scan_filter_cnt_65536_46
000193   f187     jbclr   0x187, 0         	JBCLR	PFLAG,0
000194   a197     goto    0x197            	GOTO	_00231_DS_
                                           ;;genSkipc:3291: created from rifx:013B5EFC
                                           ;	.line	250; "MC32F7361.c"	filter_cnt++;
000195   661d     incr    0x1d             	INCR	_key_scan_filter_cnt_65536_46
                                           ;	.line	251; "MC32F7361.c"	return;
000196   a1ca     goto    0x1ca            	GOTO	_00253_DS_
                                           _00231_DS_
                                           ;	.line	256; "MC32F7361.c"	if (last_key_id != cur_key_id)
000197   581c     movar   0x1c             	MOVAR	_key_scan_cur_key_id_65536_46
000198   4021     xorar   0x21             	XORAR	_key_scan_last_key_id_65536_46
000199   e587     jbset   0x187, 0x2       	JBSET	PFLAG,2
00019a   a19c     goto    0x19c            	GOTO	_00305_DS_
00019b   a1b3     goto    0x1b3            	GOTO	_00251_DS_
                                           _00305_DS_
                                           ;	.line	258; "MC32F7361.c"	if (last_key_id == KEY_ID_NONE)
00019c   3c00     movai   0                	MOVAI	0x00
00019d   5c21     orar    0x21             	ORAR	_key_scan_last_key_id_65536_46
00019e   e587     jbset   0x187, 0x2       	JBSET	PFLAG,2
00019f   a1a2     goto    0x1a2            	GOTO	_00240_DS_
                                           ;	.line	261; "MC32F7361.c"	press_cnt = 0;
0001a0   761f     clrr    0x1f             	CLRR	_key_scan_press_cnt_65536_46
0001a1   a1c8     goto    0x1c8            	GOTO	_00252_DS_
                                           _00240_DS_
                                           ;	.line	263; "MC32F7361.c"	else if (cur_key_id == KEY_ID_NONE)
0001a2   3c00     movai   0                	MOVAI	0x00
0001a3   5c1c     orar    0x1c             	ORAR	_key_scan_cur_key_id_65536_46
0001a4   e587     jbset   0x187, 0x2       	JBSET	PFLAG,2
0001a5   a1c8     goto    0x1c8            	GOTO	_00252_DS_
                                           ;;unsigned compare: left < lit(0x4B=75), size=1
                                           ;	.line	266; "MC32F7361.c"	if (press_cnt < 75)
0001a6   3c4b     movai   0x4b             	MOVAI	0x4b
0001a7   481f     rsubar  0x1f             	RSUBAR	_key_scan_press_cnt_65536_46
0001a8   f187     jbclr   0x187, 0         	JBCLR	PFLAG,0
0001a9   a1b1     goto    0x1b1            	GOTO	_00235_DS_
                                           ;;genSkipc:3291: created from rifx:013B5EFC
                                           ;	.line	269; "MC32F7361.c"	if (KEY_ID_BUTTOM == last_key_id)
0001aa   5821     movar   0x21             	MOVAR	_key_scan_last_key_id_65536_46
0001ab   3901     xorai   0x1              	XORAI	0x01
0001ac   e587     jbset   0x187, 0x2       	JBSET	PFLAG,2
0001ad   a1c8     goto    0x1c8            	GOTO	_00252_DS_
                                           ;	.line	272; "MC32F7361.c"	key_event = KEY_EVENT_PRESS;
0001ae   3c01     movai   0x1              	MOVAI	0x01
0001af   5631     movra   0x31             	MOVRA	_key_event
0001b0   a1c8     goto    0x1c8            	GOTO	_00252_DS_
                                           _00235_DS_
                                           ;	.line	278; "MC32F7361.c"	flag_is_key_mode_hold = 0;
0001b1   7620     clrr    0x20             	CLRR	_key_scan_flag_is_key_mode_hold_65536_46
0001b2   a1c8     goto    0x1c8            	GOTO	_00252_DS_
                                           _00251_DS_
                                           ;	.line	282; "MC32F7361.c"	else if (cur_key_id != KEY_ID_NONE)
0001b3   3c00     movai   0                	MOVAI	0x00
0001b4   5c1c     orar    0x1c             	ORAR	_key_scan_cur_key_id_65536_46
0001b5   f587     jbclr   0x187, 0x2       	JBCLR	PFLAG,2
0001b6   a1c8     goto    0x1c8            	GOTO	_00252_DS_
                                           ;;unsigned compare: left < lit(0xFF=255), size=1
                                           ;	.line	285; "MC32F7361.c"	if (press_cnt < 255)
0001b7   3cff     movai   0xff             	MOVAI	0xff
0001b8   481f     rsubar  0x1f             	RSUBAR	_key_scan_press_cnt_65536_46
0001b9   f187     jbclr   0x187, 0         	JBCLR	PFLAG,0
0001ba   a1bc     goto    0x1bc            	GOTO	_00243_DS_
                                           ;;genSkipc:3291: created from rifx:013B5EFC
                                           ;	.line	286; "MC32F7361.c"	press_cnt++;
0001bb   661f     incr    0x1f             	INCR	_key_scan_press_cnt_65536_46
                                           _00243_DS_
                                           ;	.line	288; "MC32F7361.c"	if (0 == flag_is_key_mode_hold)
0001bc   3c00     movai   0                	MOVAI	0x00
0001bd   5c20     orar    0x20             	ORAR	_key_scan_flag_is_key_mode_hold_65536_46
0001be   e587     jbset   0x187, 0x2       	JBSET	PFLAG,2
0001bf   a1c8     goto    0x1c8            	GOTO	_00252_DS_
                                           ;;unsigned compare: left < lit(0x64=100), size=1
                                           ;	.line	290; "MC32F7361.c"	if (press_cnt >= 100) // xx ms
0001c0   3c64     movai   0x64             	MOVAI	0x64
0001c1   481f     rsubar  0x1f             	RSUBAR	_key_scan_press_cnt_65536_46
0001c2   e187     jbset   0x187, 0         	JBSET	PFLAG,0
0001c3   a1c8     goto    0x1c8            	GOTO	_00252_DS_
                                           ;;genSkipc:3291: created from rifx:013B5EFC
                                           ;	.line	292; "MC32F7361.c"	key_event = KEY_EVENT_HOLD;
0001c4   3c02     movai   0x2              	MOVAI	0x02
0001c5   5631     movra   0x31             	MOVRA	_key_event
                                           ;	.line	293; "MC32F7361.c"	flag_is_key_mode_hold = 1;
0001c6   3c01     movai   0x1              	MOVAI	0x01
0001c7   5620     movra   0x20             	MOVRA	_key_scan_flag_is_key_mode_hold_65536_46
                                           _00252_DS_
                                           ;	.line	298; "MC32F7361.c"	last_key_id = cur_key_id;
0001c8   581c     movar   0x1c             	MOVAR	_key_scan_cur_key_id_65536_46
0001c9   5621     movra   0x21             	MOVRA	_key_scan_last_key_id_65536_46
                                           _00253_DS_
                                           ;	.line	299; "MC32F7361.c"	}
0001ca   000c     return                   	RETURN	
                                           ; exit point of _key_scan
                                           
                                           ;***
                                           ;  pBlock Stats: dbName = C
                                           ;***
                                           ;entry:  _Sys_Init	;Function start
                                           ; 2 exit points
                                           ;has an exit
                                           ;functions called:
                                           ;   _CLR_RAM
                                           ;   _IO_Init
                                           ;   _led_red_pwm_config
                                           ;   _led_blue_pwm_config
                                           ;   _led_red_off
                                           ;   _led_blue_off
                                           ;   _adc_config
                                           ;   _timer3_config
                                           ;   _CLR_RAM
                                           ;   _IO_Init
                                           ;   _led_red_pwm_config
                                           ;   _led_blue_pwm_config
                                           ;   _led_red_off
                                           ;   _led_blue_off
                                           ;   _adc_config
                                           ;   _timer3_config
                                           ;; Starting pCode block
                                           _Sys_Init	;Function start
                                           ; 2 exit points
                                           ;	.line	188; "MC32F7361.c"	GIE = 0;
0001cb   df88     bclr    0x188, 0x7       	BCLR	_MCRbits,7
                                           ;	.line	189; "MC32F7361.c"	CLR_RAM();
0001cc   82d0     call    0x2d0            	CALL	_CLR_RAM
                                           ;	.line	190; "MC32F7361.c"	IO_Init();
0001cd   82ba     call    0x2ba            	CALL	_IO_Init
                                           ;	.line	193; "MC32F7361.c"	led_red_pwm_config();
0001ce   81ee     call    0x1ee            	CALL	_led_red_pwm_config
                                           ;	.line	195; "MC32F7361.c"	led_blue_pwm_config();
0001cf   81e8     call    0x1e8            	CALL	_led_blue_pwm_config
                                           ;	.line	196; "MC32F7361.c"	LED_RED_OFF();
0001d0   81e1     call    0x1e1            	CALL	_led_red_off
                                           ;	.line	197; "MC32F7361.c"	LED_GREEN_OFF();
0001d1   d794     bclr    0x194, 0x3       	BCLR	_IOP1bits,3
                                           ;	.line	198; "MC32F7361.c"	LED_BLUE_OFF();
0001d2   81da     call    0x1da            	CALL	_led_blue_off
                                           ;	.line	201; "MC32F7361.c"	P00PU = 1; // --()
0001d3   c192     bset    0x192, 0         	BSET	_PUP0bits,0
                                           ;	.line	202; "MC32F7361.c"	P00OE = 0; // 
0001d4   d191     bclr    0x191, 0         	BCLR	_OEP0bits,0
                                           ;	.line	208; "MC32F7361.c"	P04OE = 0; // 
0001d5   d991     bclr    0x191, 0x4       	BCLR	_OEP0bits,4
                                           ;	.line	211; "MC32F7361.c"	adc_config();
0001d6   82b3     call    0x2b3            	CALL	_adc_config
                                           ;	.line	212; "MC32F7361.c"	timer3_config();
0001d7   81f4     call    0x1f4            	CALL	_timer3_config
                                           ;	.line	214; "MC32F7361.c"	GIE = 1;
0001d8   cf88     bset    0x188, 0x7       	BSET	_MCRbits,7
                                           ;	.line	215; "MC32F7361.c"	}
0001d9   000c     return                   	RETURN	
                                           ; exit point of _Sys_Init
                                           
                                           ;***
                                           ;  pBlock Stats: dbName = C
                                           ;***
                                           ;entry:  _led_blue_off	;Function start
                                           ; 2 exit points
                                           ;has an exit
                                           ;; Starting pCode block
                                           _led_blue_off	;Function start
                                           ; 2 exit points
                                           ;	.line	175; "MC32F7361.c"	PWM0EC = 0;
0001da   dd98     bclr    0x198, 0x6       	BCLR	_T0CRbits,6
                                           ;	.line	176; "MC32F7361.c"	T0EN = 0;
0001db   df98     bclr    0x198, 0x7       	BCLR	_T0CRbits,7
                                           ;	.line	177; "MC32F7361.c"	LED_BLUE_PIN = 1; // 
0001dc   cd94     bset    0x194, 0x6       	BSET	_IOP1bits,6
                                           ;	.line	178; "MC32F7361.c"	}
0001dd   000c     return                   	RETURN	
                                           ; exit point of _led_blue_off
                                           
                                           ;***
                                           ;  pBlock Stats: dbName = C
                                           ;***
                                           ;entry:  _led_blue_on	;Function start
                                           ; 2 exit points
                                           ;has an exit
                                           ;; Starting pCode block
                                           _led_blue_on	;Function start
                                           ; 2 exit points
                                           ;	.line	169; "MC32F7361.c"	PWM0EC = 1;
0001de   cd98     bset    0x198, 0x6       	BSET	_T0CRbits,6
                                           ;	.line	170; "MC32F7361.c"	T0EN = 1;
0001df   cf98     bset    0x198, 0x7       	BSET	_T0CRbits,7
                                           ;	.line	171; "MC32F7361.c"	}
0001e0   000c     return                   	RETURN	
                                           ; exit point of _led_blue_on
                                           
                                           ;***
                                           ;  pBlock Stats: dbName = C
                                           ;***
                                           ;entry:  _led_red_off	;Function start
                                           ; 2 exit points
                                           ;has an exit
                                           ;; Starting pCode block
                                           _led_red_off	;Function start
                                           ; 2 exit points
                                           ;	.line	162; "MC32F7361.c"	PWM1EC = 0;
0001e1   dd9c     bclr    0x19c, 0x6       	BCLR	_T1CRbits,6
                                           ;	.line	163; "MC32F7361.c"	T1EN = 0;
0001e2   df9c     bclr    0x19c, 0x7       	BCLR	_T1CRbits,7
                                           ;	.line	164; "MC32F7361.c"	LED_RED_PIN = 1; // 
0001e3   cf94     bset    0x194, 0x7       	BSET	_IOP1bits,7
                                           ;	.line	165; "MC32F7361.c"	}
0001e4   000c     return                   	RETURN	
                                           ; exit point of _led_red_off
                                           
                                           ;***
                                           ;  pBlock Stats: dbName = C
                                           ;***
                                           ;entry:  _led_red_on	;Function start
                                           ; 2 exit points
                                           ;has an exit
                                           ;; Starting pCode block
                                           _led_red_on	;Function start
                                           ; 2 exit points
                                           ;	.line	156; "MC32F7361.c"	PWM1EC = 1;
0001e5   cd9c     bset    0x19c, 0x6       	BSET	_T1CRbits,6
                                           ;	.line	157; "MC32F7361.c"	T1EN = 1;
0001e6   cf9c     bset    0x19c, 0x7       	BSET	_T1CRbits,7
                                           ;	.line	158; "MC32F7361.c"	}
0001e7   000c     return                   	RETURN	
                                           ; exit point of _led_red_on
                                           
                                           ;***
                                           ;  pBlock Stats: dbName = C
                                           ;***
                                           ;entry:  _led_blue_pwm_config	;Function start
                                           ; 2 exit points
                                           ;has an exit
                                           ;; Starting pCode block
                                           _led_blue_pwm_config	;Function start
                                           ; 2 exit points
                                           ;	.line	146; "MC32F7361.c"	T0CR = 0x01 << 1; // PWM,CPU,4
0001e8   3c02     movai   0x2              	MOVAI	0x02
0001e9   5798     movra   0x198            	MOVRA	_T0CR
                                           ;	.line	148; "MC32F7361.c"	T0LOAD = 100 - 1; // 100us
0001ea   3c63     movai   0x63             	MOVAI	0x63
0001eb   579a     movra   0x19a            	MOVRA	_T0LOAD
                                           ;	.line	151; "MC32F7361.c"	T0EN = 0;
0001ec   df98     bclr    0x198, 0x7       	BCLR	_T0CRbits,7
                                           ;	.line	152; "MC32F7361.c"	}
0001ed   000c     return                   	RETURN	
                                           ; exit point of _led_blue_pwm_config
                                           
                                           ;***
                                           ;  pBlock Stats: dbName = C
                                           ;***
                                           ;entry:  _led_red_pwm_config	;Function start
                                           ; 2 exit points
                                           ;has an exit
                                           ;; Starting pCode block
                                           _led_red_pwm_config	;Function start
                                           ; 2 exit points
                                           ;	.line	135; "MC32F7361.c"	T1CR = 0x01 << 1; // PWM,CPU,4
0001ee   3c02     movai   0x2              	MOVAI	0x02
0001ef   579c     movra   0x19c            	MOVRA	_T1CR
                                           ;	.line	137; "MC32F7361.c"	T1LOAD = 100 - 1; // 100us
0001f0   3c63     movai   0x63             	MOVAI	0x63
0001f1   579e     movra   0x19e            	MOVRA	_T1LOAD
                                           ;	.line	140; "MC32F7361.c"	T1EN = 0;
0001f2   df9c     bclr    0x19c, 0x7       	BCLR	_T1CRbits,7
                                           ;	.line	141; "MC32F7361.c"	}
0001f3   000c     return                   	RETURN	
                                           ; exit point of _led_red_pwm_config
                                           
                                           ;***
                                           ;  pBlock Stats: dbName = C
                                           ;***
                                           ;entry:  _timer3_config	;Function start
                                           ; 2 exit points
                                           ;has an exit
                                           ;; Starting pCode block
                                           _timer3_config	;Function start
                                           ; 2 exit points
                                           ;	.line	126; "MC32F7361.c"	T3LOAD = 135 - 1; // 1ms
0001f4   3c86     movai   0x86             	MOVAI	0x86
0001f5   57a6     movra   0x1a6            	MOVRA	_T3LOAD
                                           ;	.line	128; "MC32F7361.c"	T3CR = (0x01 << 7) | (0x01 << 2) | (0x01); // FCPU32
0001f6   3c85     movai   0x85             	MOVAI	0x85
0001f7   57a4     movra   0x1a4            	MOVRA	_T3CR
                                           ;	.line	129; "MC32F7361.c"	T3IE = 1;
0001f8   cf8a     bset    0x18a, 0x7       	BSET	_INTEbits,7
                                           ;	.line	130; "MC32F7361.c"	}
0001f9   000c     return                   	RETURN	
                                           ; exit point of _timer3_config
                                           
                                           ;***
                                           ;  pBlock Stats: dbName = C
                                           ;***
                                           ;entry:  _adc_get_val_once	;Function start
                                           ; 2 exit points
                                           ;has an exit
                                           ;7 compiler assigned registers:
                                           ;   r0x1026
                                           ;   r0x1027
                                           ;   r0x1028
                                           ;   r0x1029
                                           ;   r0x102A
                                           ;   r0x102B
                                           ;   STK00
                                           ;; Starting pCode block
                                           _adc_get_val_once	;Function start
                                           ; 2 exit points
                                           ;	.line	110; "MC32F7361.c"	ADEOC = 0; // ADCAD
0001fa   d3b0     bclr    0x1b0, 0x1       	BCLR	_ADCR0bits,1
                                           _00188_DS_
                                           ;	.line	111; "MC32F7361.c"	while (!ADEOC)
0001fb   e3b0     jbset   0x1b0, 0x1       	JBSET	_ADCR0bits,1
0001fc   a1fb     goto    0x1fb            	GOTO	_00188_DS_
                                           ;	.line	113; "MC32F7361.c"	g_temp_value = ADRH; // 
0001fd   59b4     movar   0x1b4            	MOVAR	_ADRH
0001fe   5616     movra   0x16             	MOVRA	r0x1026
0001ff   7617     clrr    0x17             	CLRR	r0x1027
                                           ;	.line	114; "MC32F7361.c"	g_temp_value = g_temp_value << 4 | (ADRL & 0x0F);
000200   4417     swapar  0x17             	SWAPAR	r0x1027
000201   3ef0     andai   0xf0             	ANDAI	0xf0
000202   5619     movra   0x19             	MOVRA	r0x1028
000203   4416     swapar  0x16             	SWAPAR	r0x1026
000204   5618     movra   0x18             	MOVRA	r0x1029
000205   3e0f     andai   0xf              	ANDAI	0x0f
000206   5e19     orra    0x19             	ORRA	r0x1028
000207   4218     xorra   0x18             	XORRA	r0x1029
000208   59b5     movar   0x1b5            	MOVAR	_ADRL
000209   5616     movra   0x16             	MOVRA	r0x1026
00020a   7617     clrr    0x17             	CLRR	r0x1027
00020b   3c0f     movai   0xf              	MOVAI	0x0f
00020c   7a16     andra   0x16             	ANDRA	r0x1026
00020d   7617     clrr    0x17             	CLRR	r0x1027
                                           ;;101	MOVAR	r0x1026
                                           ;;99	MOVRA	r0x102A
                                           ;;104	MOVAR	r0x1027
                                           ;;102	MOVRA	r0x102B
                                           ;;100	MOVAR	r0x102A
00020e   5816     movar   0x16             	MOVAR	r0x1026
00020f   5e18     orra    0x18             	ORRA	r0x1029
                                           ;;103	MOVAR	r0x102B
000210   3c00     movai   0                	MOVAI	0x00
000211   5e19     orra    0x19             	ORRA	r0x1028
                                           ;	.line	115; "MC32F7361.c"	return g_temp_value;
000212   5818     movar   0x18             	MOVAR	r0x1029
000213   5606     movra   0x6              	MOVRA	STK00
000214   5819     movar   0x19             	MOVAR	r0x1028
                                           ;	.line	116; "MC32F7361.c"	}
000215   000c     return                   	RETURN	
                                           ; exit point of _adc_get_val_once
                                           
                                           ;***
                                           ;  pBlock Stats: dbName = C
                                           ;***
                                           ;entry:  _adc_get_val	;Function start
                                           ; 2 exit points
                                           ;has an exit
                                           ;16 compiler assigned registers:
                                           ;   r0x1017
                                           ;   r0x1018
                                           ;   r0x1019
                                           ;   r0x101A
                                           ;   r0x101B
                                           ;   r0x101C
                                           ;   r0x101D
                                           ;   r0x101E
                                           ;   r0x101F
                                           ;   r0x1020
                                           ;   r0x1021
                                           ;   r0x1022
                                           ;   r0x1023
                                           ;   r0x1024
                                           ;   r0x1025
                                           ;   STK00
                                           ;; Starting pCode block
                                           _adc_get_val	;Function start
                                           ; 2 exit points
                                           ;	.line	79; "MC32F7361.c"	u32 g_tmpbuff = 0;
000216   7608     clrr    0x8              	CLRR	r0x1017
000217   7607     clrr    0x7              	CLRR	r0x1018
000218   7609     clrr    0x9              	CLRR	r0x1019
000219   760a     clrr    0xa              	CLRR	r0x101A
                                           ;	.line	80; "MC32F7361.c"	u16 g_adcmax = 0;
00021a   760b     clrr    0xb              	CLRR	r0x101B
00021b   760c     clrr    0xc              	CLRR	r0x101C
                                           ;	.line	81; "MC32F7361.c"	u16 g_adcmin = 0xFFFF;
00021c   3cff     movai   0xff             	MOVAI	0xff
00021d   560d     movra   0xd              	MOVRA	r0x101D
00021e   560e     movra   0xe              	MOVRA	r0x101E
                                           ;	.line	84; "MC32F7361.c"	for (i = 0; i < 20; i++)
00021f   760f     clrr    0xf              	CLRR	r0x101F
                                           _00142_DS_
                                           ;	.line	86; "MC32F7361.c"	ADEOC = 0; // ADCAD
000220   d3b0     bclr    0x1b0, 0x1       	BCLR	_ADCR0bits,1
                                           _00131_DS_
                                           ;	.line	87; "MC32F7361.c"	while (!ADEOC)
000221   e3b0     jbset   0x1b0, 0x1       	JBSET	_ADCR0bits,1
000222   a221     goto    0x221            	GOTO	_00131_DS_
                                           ;	.line	89; "MC32F7361.c"	g_temp_value = ADRH; // 
000223   59b4     movar   0x1b4            	MOVAR	_ADRH
000224   5610     movra   0x10             	MOVRA	r0x1020
000225   7611     clrr    0x11             	CLRR	r0x1021
                                           ;	.line	90; "MC32F7361.c"	g_temp_value = g_temp_value << 4 | (ADRL & 0x0F);
000226   4411     swapar  0x11             	SWAPAR	r0x1021
000227   3ef0     andai   0xf0             	ANDAI	0xf0
000228   5613     movra   0x13             	MOVRA	r0x1022
000229   4410     swapar  0x10             	SWAPAR	r0x1020
00022a   5612     movra   0x12             	MOVRA	r0x1023
00022b   3e0f     andai   0xf              	ANDAI	0x0f
00022c   5e13     orra    0x13             	ORRA	r0x1022
00022d   4212     xorra   0x12             	XORRA	r0x1023
00022e   59b5     movar   0x1b5            	MOVAR	_ADRL
00022f   5610     movra   0x10             	MOVRA	r0x1020
000230   7611     clrr    0x11             	CLRR	r0x1021
000231   3c0f     movai   0xf              	MOVAI	0x0f
000232   7a10     andra   0x10             	ANDRA	r0x1020
000233   7611     clrr    0x11             	CLRR	r0x1021
                                           ;;120	MOVAR	r0x1020
000234   3c00     movai   0                	MOVAI	0x00
000235   5615     movra   0x15             	MOVRA	r0x1025
                                           ;;119	MOVAR	r0x1024
000236   5810     movar   0x10             	MOVAR	r0x1020
000237   5614     movra   0x14             	MOVRA	r0x1024
000238   5c12     orar    0x12             	ORAR	r0x1023
000239   5610     movra   0x10             	MOVRA	r0x1020
00023a   5815     movar   0x15             	MOVAR	r0x1025
00023b   5c13     orar    0x13             	ORAR	r0x1022
00023c   5611     movra   0x11             	MOVRA	r0x1021
                                           ;;unsigned compare: left < lit(0x2=2), size=1
                                           ;	.line	91; "MC32F7361.c"	if (i < 2)
00023d   3c02     movai   0x2              	MOVAI	0x02
00023e   480f     rsubar  0xf              	RSUBAR	r0x101F
00023f   e187     jbset   0x187, 0         	JBSET	PFLAG,0
000240   a26b     goto    0x26b            	GOTO	_00140_DS_
                                           ;;genSkipc:3291: created from rifx:013B5EFC
                                           ;	.line	93; "MC32F7361.c"	if (g_temp_value > g_adcmax)
000241   5811     movar   0x11             	MOVAR	r0x1021
000242   480c     rsubar  0xc              	RSUBAR	r0x101C
000243   e587     jbset   0x187, 0x2       	JBSET	PFLAG,2
000244   a247     goto    0x247            	GOTO	_00182_DS_
000245   5810     movar   0x10             	MOVAR	r0x1020
000246   480b     rsubar  0xb              	RSUBAR	r0x101B
                                           _00182_DS_
000247   f187     jbclr   0x187, 0         	JBCLR	PFLAG,0
000248   a24d     goto    0x24d            	GOTO	_00137_DS_
                                           ;;genSkipc:3291: created from rifx:013B5EFC
                                           ;	.line	94; "MC32F7361.c"	g_adcmax = g_temp_value; // 
000249   5810     movar   0x10             	MOVAR	r0x1020
00024a   560b     movra   0xb              	MOVRA	r0x101B
00024b   5811     movar   0x11             	MOVAR	r0x1021
00024c   560c     movra   0xc              	MOVRA	r0x101C
                                           _00137_DS_
                                           ;	.line	95; "MC32F7361.c"	if (g_temp_value < g_adcmin)
00024d   580e     movar   0xe              	MOVAR	r0x101E
00024e   4811     rsubar  0x11             	RSUBAR	r0x1021
00024f   e587     jbset   0x187, 0x2       	JBSET	PFLAG,2
000250   a253     goto    0x253            	GOTO	_00183_DS_
000251   580d     movar   0xd              	MOVAR	r0x101D
000252   4810     rsubar  0x10             	RSUBAR	r0x1020
                                           _00183_DS_
000253   f187     jbclr   0x187, 0         	JBCLR	PFLAG,0
000254   a259     goto    0x259            	GOTO	_00139_DS_
                                           ;;genSkipc:3291: created from rifx:013B5EFC
                                           ;	.line	96; "MC32F7361.c"	g_adcmin = g_temp_value; // 
000255   5810     movar   0x10             	MOVAR	r0x1020
000256   560d     movra   0xd              	MOVRA	r0x101D
000257   5811     movar   0x11             	MOVAR	r0x1021
000258   560e     movra   0xe              	MOVRA	r0x101E
                                           ;;116	MOVAR	r0x1020
                                           ;;118	MOVAR	r0x1021
                                           _00139_DS_
                                           ;	.line	97; "MC32F7361.c"	g_tmpbuff += g_temp_value;
000259   7614     clrr    0x14             	CLRR	r0x1024
00025a   7615     clrr    0x15             	CLRR	r0x1025
                                           ;;115	MOVAR	r0x1023
00025b   5810     movar   0x10             	MOVAR	r0x1020
00025c   5612     movra   0x12             	MOVRA	r0x1023
00025d   7e08     addra   0x8              	ADDRA	r0x1017
                                           ;;117	MOVAR	r0x1022
00025e   5811     movar   0x11             	MOVAR	r0x1021
00025f   5613     movra   0x13             	MOVRA	r0x1022
000260   f187     jbclr   0x187, 0         	JBCLR	PFLAG,0
000261   6013     jzar    0x13             	JZAR	r0x1022
000262   7e07     addra   0x7              	ADDRA	r0x1018
000263   5814     movar   0x14             	MOVAR	r0x1024
000264   f187     jbclr   0x187, 0         	JBCLR	PFLAG,0
000265   6014     jzar    0x14             	JZAR	r0x1024
000266   7e09     addra   0x9              	ADDRA	r0x1019
000267   5815     movar   0x15             	MOVAR	r0x1025
000268   f187     jbclr   0x187, 0         	JBCLR	PFLAG,0
000269   6015     jzar    0x15             	JZAR	r0x1025
00026a   7e0a     addra   0xa              	ADDRA	r0x101A
                                           _00140_DS_
                                           ;	.line	84; "MC32F7361.c"	for (i = 0; i < 20; i++)
00026b   660f     incr    0xf              	INCR	r0x101F
                                           ;;unsigned compare: left < lit(0x14=20), size=1
00026c   3c14     movai   0x14             	MOVAI	0x14
00026d   480f     rsubar  0xf              	RSUBAR	r0x101F
00026e   e187     jbset   0x187, 0         	JBSET	PFLAG,0
00026f   a220     goto    0x220            	GOTO	_00142_DS_
                                           ;;genSkipc:3291: created from rifx:013B5EFC
                                           ;;114	MOVAR	r0x101B
                                           ;	.line	99; "MC32F7361.c"	g_tmpbuff -= g_adcmax;           // 
000270   580c     movar   0xc              	MOVAR	r0x101C
000271   5610     movra   0x10             	MOVRA	r0x1020
000272   7611     clrr    0x11             	CLRR	r0x1021
000273   7612     clrr    0x12             	CLRR	r0x1023
                                           ;;113	MOVAR	r0x101F
000274   580b     movar   0xb              	MOVAR	r0x101B
000275   560f     movra   0xf              	MOVRA	r0x101F
000276   4808     rsubar  0x8              	RSUBAR	r0x1017
000277   560b     movra   0xb              	MOVRA	r0x101B
000278   5807     movar   0x7              	MOVAR	r0x1018
000279   560c     movra   0xc              	MOVRA	r0x101C
00027a   5810     movar   0x10             	MOVAR	r0x1020
00027b   e187     jbset   0x187, 0         	JBSET	PFLAG,0
00027c   6010     jzar    0x10             	JZAR	r0x1020
00027d   4a0c     rsubra  0xc              	RSUBRA	r0x101C
00027e   5809     movar   0x9              	MOVAR	r0x1019
00027f   5613     movra   0x13             	MOVRA	r0x1022
000280   5811     movar   0x11             	MOVAR	r0x1021
000281   e187     jbset   0x187, 0         	JBSET	PFLAG,0
000282   6011     jzar    0x11             	JZAR	r0x1021
000283   4a13     rsubra  0x13             	RSUBRA	r0x1022
000284   5812     movar   0x12             	MOVAR	r0x1023
000285   e187     jbset   0x187, 0         	JBSET	PFLAG,0
000286   6412     incar   0x12             	INCAR	r0x1023
000287   480a     rsubar  0xa              	RSUBAR	r0x101A
000288   5614     movra   0x14             	MOVRA	r0x1024
                                           ;;106	MOVAR	r0x101D
                                           ;;108	MOVAR	r0x101E
                                           ;	.line	100; "MC32F7361.c"	g_tmpbuff -= g_adcmin;           // 
000289   7609     clrr    0x9              	CLRR	r0x1019
00028a   760a     clrr    0xa              	CLRR	r0x101A
                                           ;;105	MOVAR	r0x1017
00028b   580d     movar   0xd              	MOVAR	r0x101D
00028c   5608     movra   0x8              	MOVRA	r0x1017
00028d   4a0b     rsubra  0xb              	RSUBRA	r0x101B
                                           ;;107	MOVAR	r0x1018
00028e   580e     movar   0xe              	MOVAR	r0x101E
00028f   5607     movra   0x7              	MOVRA	r0x1018
000290   e187     jbset   0x187, 0         	JBSET	PFLAG,0
000291   6007     jzar    0x7              	JZAR	r0x1018
000292   4a0c     rsubra  0xc              	RSUBRA	r0x101C
000293   5809     movar   0x9              	MOVAR	r0x1019
000294   e187     jbset   0x187, 0         	JBSET	PFLAG,0
000295   6009     jzar    0x9              	JZAR	r0x1019
000296   4a13     rsubra  0x13             	RSUBRA	r0x1022
000297   580a     movar   0xa              	MOVAR	r0x101A
000298   e187     jbset   0x187, 0         	JBSET	PFLAG,0
000299   600a     jzar    0xa              	JZAR	r0x101A
00029a   4a14     rsubra  0x14             	RSUBRA	r0x1024
                                           ;	.line	101; "MC32F7361.c"	g_temp_value = (g_tmpbuff >> 4); // 16
00029b   440b     swapar  0xb              	SWAPAR	r0x101B
00029c   3e0f     andai   0xf              	ANDAI	0x0f
00029d   5608     movra   0x8              	MOVRA	r0x1017
00029e   440c     swapar  0xc              	SWAPAR	r0x101C
00029f   5607     movra   0x7              	MOVRA	r0x1018
0002a0   3ef0     andai   0xf0             	ANDAI	0xf0
0002a1   5e08     orra    0x8              	ORRA	r0x1017
0002a2   4207     xorra   0x7              	XORRA	r0x1018
0002a3   4413     swapar  0x13             	SWAPAR	r0x1022
0002a4   5609     movra   0x9              	MOVRA	r0x1019
0002a5   3ef0     andai   0xf0             	ANDAI	0xf0
0002a6   5e07     orra    0x7              	ORRA	r0x1018
0002a7   4209     xorra   0x9              	XORRA	r0x1019
0002a8   4414     swapar  0x14             	SWAPAR	r0x1024
0002a9   560a     movra   0xa              	MOVRA	r0x101A
0002aa   3ef0     andai   0xf0             	ANDAI	0xf0
0002ab   5e09     orra    0x9              	ORRA	r0x1019
0002ac   420a     xorra   0xa              	XORRA	r0x101A
                                           ;;110	MOVAR	r0x1017
                                           ;;112	MOVAR	r0x1018
                                           ;;109	MOVAR	r0x101B
                                           ;	.line	103; "MC32F7361.c"	return g_temp_value;
0002ad   5808     movar   0x8              	MOVAR	r0x1017
0002ae   560b     movra   0xb              	MOVRA	r0x101B
0002af   5606     movra   0x6              	MOVRA	STK00
                                           ;;111	MOVAR	r0x101C
0002b0   5807     movar   0x7              	MOVAR	r0x1018
0002b1   560c     movra   0xc              	MOVRA	r0x101C
                                           ;	.line	104; "MC32F7361.c"	}
0002b2   000c     return                   	RETURN	
                                           ; exit point of _adc_get_val
                                           
                                           ;***
                                           ;  pBlock Stats: dbName = C
                                           ;***
                                           ;entry:  _adc_config	;Function start
                                           ; 2 exit points
                                           ;has an exit
                                           ;; Starting pCode block
                                           _adc_config	;Function start
                                           ; 2 exit points
                                           ;	.line	69; "MC32F7361.c"	ADCR0 = 0xAB; // 12adc,adc  1/4 VDD
0002b3   3cab     movai   0xab             	MOVAI	0xab
0002b4   57b0     movra   0x1b0            	MOVRA	_ADCR0
                                           ;	.line	70; "MC32F7361.c"	ADCR1 = 0x80; // adc FHIRC/322.0V
0002b5   3c80     movai   0x80             	MOVAI	0x80
0002b6   57b1     movra   0x1b1            	MOVRA	_ADCR1
                                           ;	.line	71; "MC32F7361.c"	ADCR2 = 0x0F; // 15  ADCLK
0002b7   3c0f     movai   0xf              	MOVAI	0x0f
0002b8   57b2     movra   0x1b2            	MOVRA	_ADCR2
                                           ;	.line	72; "MC32F7361.c"	}
0002b9   000c     return                   	RETURN	
                                           ; exit point of _adc_config
                                           
                                           ;***
                                           ;  pBlock Stats: dbName = C
                                           ;***
                                           ;entry:  _IO_Init	;Function start
                                           ; 2 exit points
                                           ;has an exit
                                           ;; Starting pCode block
                                           _IO_Init	;Function start
                                           ; 2 exit points
                                           ;	.line	37; "MC32F7361.c"	IOP0 = 0x00;   // io
0002ba   7790     clrr    0x190            	CLRR	_IOP0
                                           ;	.line	38; "MC32F7361.c"	OEP0 = 0x3F;   // io 1:out  0:in
0002bb   3c3f     movai   0x3f             	MOVAI	0x3f
0002bc   5791     movra   0x191            	MOVRA	_OEP0
                                           ;	.line	39; "MC32F7361.c"	PUP0 = 0x00;   // io   1:enable  0:disable
0002bd   7792     clrr    0x192            	CLRR	_PUP0
                                           ;	.line	40; "MC32F7361.c"	PDP0 = 0x00;   // io   1:enable  0:disable
0002be   7793     clrr    0x193            	CLRR	_PDP0
                                           ;	.line	41; "MC32F7361.c"	P0ADCR = 0x00; // io  1:  0:io
0002bf   77b6     clrr    0x1b6            	CLRR	_P0ADCR
                                           ;	.line	44; "MC32F7361.c"	IOP1 = 0xC0;   // LED
0002c0   3cc0     movai   0xc0             	MOVAI	0xc0
0002c1   5794     movra   0x194            	MOVRA	_IOP1
                                           ;	.line	45; "MC32F7361.c"	OEP1 = 0xFF;   // io 1:out  0:in
0002c2   3cff     movai   0xff             	MOVAI	0xff
0002c3   5795     movra   0x195            	MOVRA	_OEP1
                                           ;	.line	46; "MC32F7361.c"	PUP1 = 0x00;   // io   1:enable  0:disable
0002c4   7796     clrr    0x196            	CLRR	_PUP1
                                           ;	.line	47; "MC32F7361.c"	PDP1 = 0x00;   // io   1:enable  0:disable
0002c5   7797     clrr    0x197            	CLRR	_PDP1
                                           ;	.line	48; "MC32F7361.c"	P1ADCR = 0x00; // io  1:  0:io
0002c6   77b7     clrr    0x1b7            	CLRR	_P1ADCR
                                           ;	.line	50; "MC32F7361.c"	IOP2 = 0x00; // io
0002c7   77b8     clrr    0x1b8            	CLRR	_IOP2
                                           ;	.line	51; "MC32F7361.c"	OEP2 = 0x0F; // io 1:out  0:in
0002c8   3c0f     movai   0xf              	MOVAI	0x0f
0002c9   57b9     movra   0x1b9            	MOVRA	_OEP2
                                           ;	.line	52; "MC32F7361.c"	PUP2 = 0x00; // io   1:enable  0:disable
0002ca   77ba     clrr    0x1ba            	CLRR	_PUP2
                                           ;	.line	53; "MC32F7361.c"	PDP2 = 0x00; // io   1:enable  0:disablea
0002cb   77bb     clrr    0x1bb            	CLRR	_PDP2
                                           ;	.line	55; "MC32F7361.c"	PMOD = 0x00;  // P00P01P13 io
0002cc   77bc     clrr    0x1bc            	CLRR	_PMOD
                                           ;	.line	56; "MC32F7361.c"	DRVCR = 0xB0; // P16P17100mA
0002cd   3cb0     movai   0xb0             	MOVAI	0xb0
0002ce   578c     movra   0x18c            	MOVRA	_DRVCR
                                           ;	.line	59; "MC32F7361.c"	}
0002cf   000c     return                   	RETURN	
                                           ; exit point of _IO_Init
                                           
                                           ;***
                                           ;  pBlock Stats: dbName = C
                                           ;***
                                           ;entry:  _CLR_RAM	;Function start
                                           ; 2 exit points
                                           ;has an exit
                                           ;; Starting pCode block
                                           _CLR_RAM	;Function start
                                           ; 2 exit points
                                           ;	.line	22; "MC32F7361.c"	for (FSR0 = 0; FSR0 < 0xff; FSR0++)
0002d0   7784     clrr    0x184            	CLRR	_FSR0
                                           ;;unsigned compare: left < lit(0xFF=255), size=1
                                           _00118_DS_
0002d1   3cff     movai   0xff             	MOVAI	0xff
0002d2   4984     rsubar  0x184            	RSUBAR	_FSR0
0002d3   f187     jbclr   0x187, 0         	JBCLR	PFLAG,0
0002d4   a2d8     goto    0x2d8            	GOTO	_00116_DS_
                                           ;;genSkipc:3291: created from rifx:013B5EFC
                                           ;	.line	24; "MC32F7361.c"	INDF0 = 0x00;
0002d5   7780     clrr    0x180            	CLRR	_INDF0
                                           ;	.line	22; "MC32F7361.c"	for (FSR0 = 0; FSR0 < 0xff; FSR0++)
0002d6   6784     incr    0x184            	INCR	_FSR0
0002d7   a2d1     goto    0x2d1            	GOTO	_00118_DS_
                                           _00116_DS_
                                           ;	.line	26; "MC32F7361.c"	FSR0 = 0xFF;
0002d8   3cff     movai   0xff             	MOVAI	0xff
0002d9   5784     movra   0x184            	MOVRA	_FSR0
                                           ;	.line	27; "MC32F7361.c"	INDF0 = 0x00;
0002da   7780     clrr    0x180            	CLRR	_INDF0
                                           ;	.line	28; "MC32F7361.c"	}
0002db   000c     return                   	RETURN	
                                           ; exit point of _CLR_RAM
                                           
                                           ;***
                                           ;  pBlock Stats: dbName = C
                                           ;***
                                           ;entry:  _delay_ms	;Function start
                                           ; 2 exit points
                                           ;has an exit
                                           ;7 compiler assigned registers:
                                           ;   r0x1017
                                           ;   STK00
                                           ;   r0x1018
                                           ;   r0x1019
                                           ;   r0x101A
                                           ;   r0x101B
                                           ;   r0x101C
                                           ;; Starting pCode block
                                           _delay_ms	;Function start
                                           ; 2 exit points
                                           ;	.line	249; "user.h"	void delay_ms(u16 xms)
0002dc   5608     movra   0x8              	MOVRA	r0x1017
0002dd   5806     movar   0x6              	MOVAR	STK00
0002de   5607     movra   0x7              	MOVRA	r0x1018
                                           _00108_DS_
                                           ;	.line	251; "user.h"	while (xms)
0002df   5807     movar   0x7              	MOVAR	r0x1018
0002e0   5c08     orar    0x8              	ORAR	r0x1017
0002e1   f587     jbclr   0x187, 0x2       	JBCLR	PFLAG,2
0002e2   a2fb     goto    0x2fb            	GOTO	_00111_DS_
                                           ;	.line	254; "user.h"	while (i--)
0002e3   3c1c     movai   0x1c             	MOVAI	0x1c
0002e4   5609     movra   0x9              	MOVRA	r0x1019
0002e5   3c01     movai   0x1              	MOVAI	0x01
0002e6   560a     movra   0xa              	MOVRA	r0x101A
                                           _00105_DS_
0002e7   5809     movar   0x9              	MOVAR	r0x1019
0002e8   560b     movra   0xb              	MOVRA	r0x101B
0002e9   580a     movar   0xa              	MOVAR	r0x101A
0002ea   560c     movra   0xc              	MOVRA	r0x101C
0002eb   3cff     movai   0xff             	MOVAI	0xff
0002ec   7e09     addra   0x9              	ADDRA	r0x1019
0002ed   e187     jbset   0x187, 0         	JBSET	PFLAG,0
0002ee   6e0a     decr    0xa              	DECR	r0x101A
0002ef   580b     movar   0xb              	MOVAR	r0x101B
0002f0   5c0c     orar    0xc              	ORAR	r0x101C
0002f1   f587     jbclr   0x187, 0x2       	JBCLR	PFLAG,2
0002f2   a2f5     goto    0x2f5            	GOTO	_00107_DS_
                                           ;	.line	256; "user.h"	Nop();
0002f3   0000     nop                      	nop	
0002f4   a2e7     goto    0x2e7            	GOTO	_00105_DS_
                                           _00107_DS_
                                           ;	.line	258; "user.h"	xms--; //  --while()
0002f5   3cff     movai   0xff             	MOVAI	0xff
0002f6   7e07     addra   0x7              	ADDRA	r0x1018
0002f7   e187     jbset   0x187, 0         	JBSET	PFLAG,0
0002f8   6e08     decr    0x8              	DECR	r0x1017
                                           ;	.line	262; "user.h"	__endasm;
                                           	;
0002f9   000e     clrwdt                   	clrwdt;
                                           	
0002fa   a2df     goto    0x2df            	GOTO	_00108_DS_
                                           _00111_DS_
                                           ;	.line	264; "user.h"	}
0002fb   000c     return                   	RETURN	
                                           ; exit point of _delay_ms
                                           
                                           
                                           ;	code size estimation:
                                           ;	  741+    0 =   741 instructions ( 1482 byte)
                                           
                                           	end
                                           ;--------------------------------------------------------
                                           ; File Created by SN-SDCC : SinoMCU ANSI-C Compiler
                                           ; Version 2.0.0 (Dec 11 2019) (MINGW32)
                                           ; This file was generated Fri Jun 06 17:19:46 2025
                                           ;--------------------------------------------------------
                                           ; MC32 port for the RISC core
                                           ;--------------------------------------------------------
                                           ;	.file	"MC32F7361.c"
                                           	list	p=7361
                                           	radix dec
                                           	include "7361.inc"
                                           ;--------------------------------------------------------
                                           ; external declarations
                                           ;--------------------------------------------------------
                                           	extern	_INDF0bits
                                           	extern	_INDF1bits
                                           	extern	_INDF2bits
                                           	extern	_HIBYTEbits
                                           	extern	_FSR0bits
                                           	extern	_FSR1bits
                                           	extern	_PCLbits
                                           	extern	_PFLAGbits
                                           	extern	_MCRbits
                                           	extern	_INDF3bits
                                           	extern	_INTEbits
                                           	extern	_INTFbits
                                           	extern	_DRVCRbits
                                           	extern	_P0KBCRbits
                                           	extern	_P1KBCRbits
                                           	extern	_P2KBCRbits
                                           	extern	_IOP0bits
                                           	extern	_OEP0bits
                                           	extern	_PUP0bits
                                           	extern	_PDP0bits
                                           	extern	_IOP1bits
                                           	extern	_OEP1bits
                                           	extern	_PUP1bits
                                           	extern	_PDP1bits
                                           	extern	_T0CRbits
                                           	extern	_T0CNTbits
                                           	extern	_T0LOADbits
                                           	extern	_T0DATAbits
                                           	extern	_T1CRbits
                                           	extern	_T1CNTbits
                                           	extern	_T1LOADbits
                                           	extern	_T1DATAbits
                                           	extern	_T2CRbits
                                           	extern	_T2CNTbits
                                           	extern	_T2LOADbits
                                           	extern	_T2DATAbits
                                           	extern	_T3CRbits
                                           	extern	_T3CNTbits
                                           	extern	_T3LOADbits
                                           	extern	_PWM0DRbits
                                           	extern	_PWM1DRbits
                                           	extern	_PWM2DRbits
                                           	extern	_PWMCR0bits
                                           	extern	_PWMCR1bits
                                           	extern	_OSCMRbits
                                           	extern	_LVDCRbits
                                           	extern	_ADCR0bits
                                           	extern	_ADCR1bits
                                           	extern	_ADCR2bits
                                           	extern	_OSADJCRbits
                                           	extern	_ADRHbits
                                           	extern	_ADRLbits
                                           	extern	_P0ADCRbits
                                           	extern	_P1ADCRbits
                                           	extern	_IOP2bits
                                           	extern	_OEP2bits
                                           	extern	_PUP2bits
                                           	extern	_PDP2bits
                                           	extern	_PMODbits
                                           	extern	_PWMCR3bits
                                           	extern	_PWMCR2bits
                                           	extern	_PFRCCRbits
                                           	extern	_PFRCCALbits
                                           	extern	_EECRbits
                                           	extern	_EEPRbits
                                           	extern	_EEARbits
                                           	extern	_EEDRHbits
                                           	extern	_EEDRLbits
                                           	extern	_DBGCRbits
                                           	extern	_DBGPRbits
                                           	extern	_HIRCCALbits
                                           	extern	_INDF0
                                           	extern	_INDF1
                                           	extern	_INDF2
                                           	extern	_HIBYTE
                                           	extern	_FSR0
                                           	extern	_FSR1
                                           	extern	_PCL
                                           	extern	_PFLAG
                                           	extern	_MCR
                                           	extern	_INDF3
                                           	extern	_INTE
                                           	extern	_INTF
                                           	extern	_DRVCR
                                           	extern	_P0KBCR
                                           	extern	_P1KBCR
                                           	extern	_P2KBCR
                                           	extern	_IOP0
                                           	extern	_OEP0
                                           	extern	_PUP0
                                           	extern	_PDP0
                                           	extern	_IOP1
                                           	extern	_OEP1
                                           	extern	_PUP1
                                           	extern	_PDP1
                                           	extern	_T0CR
                                           	extern	_T0CNT
                                           	extern	_T0LOAD
                                           	extern	_T0DATA
                                           	extern	_T1CR
                                           	extern	_T1CNT
                                           	extern	_T1LOAD
                                           	extern	_T1DATA
                                           	extern	_T2CR
                                           	extern	_T2CNT
                                           	extern	_T2LOAD
                                           	extern	_T2DATA
                                           	extern	_T3CR
                                           	extern	_T3CNT
                                           	extern	_T3LOAD
                                           	extern	_PWM0DR
                                           	extern	_PWM1DR
                                           	extern	_PWM2DR
                                           	extern	_PWMCR0
                                           	extern	_PWMCR1
                                           	extern	_OSCMR
                                           	extern	_LVDCR
                                           	extern	_ADCR0
                                           	extern	_ADCR1
                                           	extern	_ADCR2
                                           	extern	_OSADJCR
                                           	extern	_ADRH
                                           	extern	_ADRL
                                           	extern	_P0ADCR
                                           	extern	_P1ADCR
                                           	extern	_IOP2
                                           	extern	_OEP2
                                           	extern	_PUP2
                                           	extern	_PDP2
                                           	extern	_PMOD
                                           	extern	_PWMCR3
                                           	extern	_PWMCR2
                                           	extern	_PFRCCR
                                           	extern	_PFRCCAL
                                           	extern	_EECR
                                           	extern	_EEPR
                                           	extern	_EEAR
                                           	extern	_EEDRH
                                           	extern	_EEDRL
                                           	extern	_DBGCR
                                           	extern	_DBGPR
                                           	extern	_HIRCCAL
                                           ;--------------------------------------------------------
                                           ; global declarations
                                           ;--------------------------------------------------------
                                           	global	_led_blue_off
                                           	global	_led_blue_on
                                           	global	_led_red_off
                                           	global	_led_red_on
                                           	global	_delay_ms
                                           	global	_CLR_RAM
                                           	global	_IO_Init
                                           	global	_adc_config
                                           	global	_adc_get_val
                                           	global	_adc_get_val_once
                                           	global	_timer3_config
                                           	global	_led_red_pwm_config
                                           	global	_led_blue_pwm_config
                                           	global	_Sys_Init
                                           	global	_key_scan
                                           	global	_key_event_handle
                                           	global	_main
                                           	global	_int_isr
                                           	global	_cur_dev_status
                                           	global	_key_event
                                           	global	_power_off_cnt
                                           	global	_abuf
                                           	global	_statusbuf
                                           	global	_adc_val
                                           	global	_i
                                           	global	_led_mode
                                           	global	_flag1
                                           
                                           	global STK06
                                           	global STK05
                                           	global STK04
                                           	global STK03
                                           	global STK02
                                           	global STK01
                                           	global STK00
                                           
                                           sharebank udata_ovr 0x0000
                                           STK06	res 1
                                           STK05	res 1
                                           STK04	res 1
                                           STK03	res 1
                                           STK02	res 1
                                           STK01	res 1
                                           STK00	res 1
                                           
                                           ;--------------------------------------------------------
                                           ; global definitions
                                           ;--------------------------------------------------------
                                           UD_MC32F7361_0	udata
                                           _cur_dev_status	res	1
                                           
                                           UD_MC32F7361_1	udata
                                           _key_event	res	1
                                           
                                           UD_MC32F7361_2	udata
                                           _power_off_cnt	res	4
                                           
                                           UD_MC32F7361_3	udata
                                           _abuf	res	1
                                           
                                           UD_MC32F7361_4	udata
                                           _statusbuf	res	1
                                           
                                           UD_MC32F7361_5	udata
                                           _adc_val	res	2
                                           
                                           UD_MC32F7361_6	udata
                                           _i	res	1
                                           
                                           UD_MC32F7361_7	udata
                                           _led_mode	res	1
                                           
                                           UD_MC32F7361_8	udata
                                           _flag1	res	1
                                           
                                           ;--------------------------------------------------------
                                           ; absolute symbol definitions
                                           ;--------------------------------------------------------
                                           ;--------------------------------------------------------
                                           ; compiler-defined variables
                                           ;--------------------------------------------------------
                                           UDL_MC32F7361_0	udata
                                           r0x1018	res	1
                                           r0x1017	res	1
                                           r0x1019	res	1
                                           r0x101A	res	1
                                           r0x101B	res	1
                                           r0x101C	res	1
                                           r0x101D	res	1
                                           r0x101E	res	1
                                           r0x101F	res	1
                                           r0x1020	res	1
                                           r0x1021	res	1
                                           r0x1023	res	1
                                           r0x1022	res	1
                                           r0x1024	res	1
                                           r0x1025	res	1
                                           r0x1026	res	1
                                           r0x1027	res	1
                                           r0x1029	res	1
                                           r0x1028	res	1
                                           r0x102C	res	1
                                           r0x102D	res	1
                                           _key_scan_cur_key_id_65536_46	res	1
                                           _key_scan_filter_cnt_65536_46	res	1
                                           _key_scan_filter_key_id_65536_46	res	1
                                           _key_scan_press_cnt_65536_46	res	1
                                           _key_scan_flag_is_key_mode_hold_65536_46	res	1
                                           _key_scan_last_key_id_65536_46	res	1
                                           _main_key_press_cnt_262144_118	res	1
                                           _int_isr_key_scan_cnt_196608_125	res	1
                                           _int_isr_blink_cnt_196608_127	res	2
                                           _int_isr_into_low_power_cnt_196608_143	res	2
                                           _int_isr_cut_down_charge_cnt_196608_147	res	2
                                           ;--------------------------------------------------------
                                           ; initialized data
                                           ;--------------------------------------------------------
                                           
                                           ;@Allocation info for local variables in function 'delay_ms'
                                           ;@delay_ms led_red_on                Allocated to registers ;size:2
                                           ;@delay_ms led_red_off               Allocated to registers ;size:2
                                           ;@delay_ms led_blue_on               Allocated to registers ;size:2
                                           ;@delay_ms led_blue_off              Allocated to registers ;size:2
                                           ;@delay_ms delay_ms                  Allocated to registers ;size:2
                                           ;@delay_ms INDF0bits                 Allocated to registers ;size:1
                                           ;@delay_ms INDF1bits                 Allocated to registers ;size:1
                                           ;@delay_ms INDF2bits                 Allocated to registers ;size:1
                                           ;@delay_ms HIBYTEbits                Allocated to registers ;size:1
                                           ;@delay_ms FSR0bits                  Allocated to registers ;size:1
                                           ;@delay_ms FSR1bits                  Allocated to registers ;size:1
                                           ;@delay_ms PCLbits                   Allocated to registers ;size:1
                                           ;@delay_ms PFLAGbits                 Allocated to registers ;size:1
                                           ;@delay_ms MCRbits                   Allocated to registers ;size:1
                                           ;@delay_ms INDF3bits                 Allocated to registers ;size:1
                                           ;@delay_ms INTEbits                  Allocated to registers ;size:1
                                           ;@delay_ms INTFbits                  Allocated to registers ;size:1
                                           ;@delay_ms DRVCRbits                 Allocated to registers ;size:1
                                           ;@delay_ms P0KBCRbits                Allocated to registers ;size:1
                                           ;@delay_ms P1KBCRbits                Allocated to registers ;size:1
                                           ;@delay_ms P2KBCRbits                Allocated to registers ;size:1
                                           ;@delay_ms IOP0bits                  Allocated to registers ;size:1
                                           ;@delay_ms OEP0bits                  Allocated to registers ;size:1
                                           ;@delay_ms PUP0bits                  Allocated to registers ;size:1
                                           ;@delay_ms PDP0bits                  Allocated to registers ;size:1
                                           ;@delay_ms IOP1bits                  Allocated to registers ;size:1
                                           ;@delay_ms OEP1bits                  Allocated to registers ;size:1
                                           ;@delay_ms PUP1bits                  Allocated to registers ;size:1
                                           ;@delay_ms PDP1bits                  Allocated to registers ;size:1
                                           ;@delay_ms T0CRbits                  Allocated to registers ;size:1
                                           ;@delay_ms T0CNTbits                 Allocated to registers ;size:1
                                           ;@delay_ms T0LOADbits                Allocated to registers ;size:1
                                           ;@delay_ms T0DATAbits                Allocated to registers ;size:1
                                           ;@delay_ms T1CRbits                  Allocated to registers ;size:1
                                           ;@delay_ms T1CNTbits                 Allocated to registers ;size:1
                                           ;@delay_ms T1LOADbits                Allocated to registers ;size:1
                                           ;@delay_ms T1DATAbits                Allocated to registers ;size:1
                                           ;@delay_ms T2CRbits                  Allocated to registers ;size:1
                                           ;@delay_ms T2CNTbits                 Allocated to registers ;size:1
                                           ;@delay_ms T2LOADbits                Allocated to registers ;size:1
                                           ;@delay_ms T2DATAbits                Allocated to registers ;size:1
                                           ;@delay_ms T3CRbits                  Allocated to registers ;size:1
                                           ;@delay_ms T3CNTbits                 Allocated to registers ;size:1
                                           ;@delay_ms T3LOADbits                Allocated to registers ;size:1
                                           ;@delay_ms PWM0DRbits                Allocated to registers ;size:1
                                           ;@delay_ms PWM1DRbits                Allocated to registers ;size:1
                                           ;@delay_ms PWM2DRbits                Allocated to registers ;size:1
                                           ;@delay_ms PWMCR0bits                Allocated to registers ;size:1
                                           ;@delay_ms PWMCR1bits                Allocated to registers ;size:1
                                           ;@delay_ms OSCMRbits                 Allocated to registers ;size:1
                                           ;@delay_ms LVDCRbits                 Allocated to registers ;size:1
                                           ;@delay_ms ADCR0bits                 Allocated to registers ;size:1
                                           ;@delay_ms ADCR1bits                 Allocated to registers ;size:1
                                           ;@delay_ms ADCR2bits                 Allocated to registers ;size:1
                                           ;@delay_ms OSADJCRbits               Allocated to registers ;size:1
                                           ;@delay_ms ADRHbits                  Allocated to registers ;size:1
                                           ;@delay_ms ADRLbits                  Allocated to registers ;size:1
                                           ;@delay_ms P0ADCRbits                Allocated to registers ;size:1
                                           ;@delay_ms P1ADCRbits                Allocated to registers ;size:1
                                           ;@delay_ms IOP2bits                  Allocated to registers ;size:1
                                           ;@delay_ms OEP2bits                  Allocated to registers ;size:1
                                           ;@delay_ms PUP2bits                  Allocated to registers ;size:1
                                           ;@delay_ms PDP2bits                  Allocated to registers ;size:1
                                           ;@delay_ms PMODbits                  Allocated to registers ;size:1
                                           ;@delay_ms PWMCR3bits                Allocated to registers ;size:1
                                           ;@delay_ms PWMCR2bits                Allocated to registers ;size:1
                                           ;@delay_ms PFRCCRbits                Allocated to registers ;size:1
                                           ;@delay_ms PFRCCALbits               Allocated to registers ;size:1
                                           ;@delay_ms EECRbits                  Allocated to registers ;size:1
                                           ;@delay_ms EEPRbits                  Allocated to registers ;size:1
                                           ;@delay_ms EEARbits                  Allocated to registers ;size:1
                                           ;@delay_ms EEDRHbits                 Allocated to registers ;size:1
                                           ;@delay_ms EEDRLbits                 Allocated to registers ;size:1
                                           ;@delay_ms DBGCRbits                 Allocated to registers ;size:1
                                           ;@delay_ms DBGPRbits                 Allocated to registers ;size:1
                                           ;@delay_ms HIRCCALbits               Allocated to registers ;size:1
                                           ;@delay_ms cur_dev_status            Allocated to registers ;size:1
                                           ;@delay_ms key_event                 Allocated to registers ;size:1
                                           ;@delay_ms power_off_cnt             Allocated to registers ;size:4
                                           ;@delay_ms abuf                      Allocated to registers ;size:1
                                           ;@delay_ms statusbuf                 Allocated to registers ;size:1
                                           ;@delay_ms adc_val                   Allocated to registers ;size:2
                                           ;@delay_ms i                         Allocated to registers ;size:1
                                           ;@delay_ms led_mode                  Allocated to registers ;size:1
                                           ;@delay_ms flag1                     Allocated to registers ;size:1
                                           ;@delay_ms xms                       Allocated to registers ;size:2
                                           ;@delay_ms i                         Allocated to registers r0x1019 r0x101A ;size:2
                                           ;@delay_ms INDF0                     Allocated to registers ;size:1
                                           ;@delay_ms INDF1                     Allocated to registers ;size:1
                                           ;@delay_ms INDF2                     Allocated to registers ;size:1
                                           ;@delay_ms HIBYTE                    Allocated to registers ;size:1
                                           ;@delay_ms FSR0                      Allocated to registers ;size:1
                                           ;@delay_ms FSR1                      Allocated to registers ;size:1
                                           ;@delay_ms PCL                       Allocated to registers ;size:1
                                           ;@delay_ms PFLAG                     Allocated to registers ;size:1
                                           ;@delay_ms MCR                       Allocated to registers ;size:1
                                           ;@delay_ms INDF3                     Allocated to registers ;size:1
                                           ;@delay_ms INTE                      Allocated to registers ;size:1
                                           ;@delay_ms INTF                      Allocated to registers ;size:1
                                           ;@delay_ms DRVCR                     Allocated to registers ;size:1
                                           ;@delay_ms P0KBCR                    Allocated to registers ;size:1
                                           ;@delay_ms P1KBCR                    Allocated to registers ;size:1
                                           ;@delay_ms P2KBCR                    Allocated to registers ;size:1
                                           ;@delay_ms IOP0                      Allocated to registers ;size:1
                                           ;@delay_ms OEP0                      Allocated to registers ;size:1
                                           ;@delay_ms PUP0                      Allocated to registers ;size:1
                                           ;@delay_ms PDP0                      Allocated to registers ;size:1
                                           ;@delay_ms IOP1                      Allocated to registers ;size:1
                                           ;@delay_ms OEP1                      Allocated to registers ;size:1
                                           ;@delay_ms PUP1                      Allocated to registers ;size:1
                                           ;@delay_ms PDP1                      Allocated to registers ;size:1
                                           ;@delay_ms T0CR                      Allocated to registers ;size:1
                                           ;@delay_ms T0CNT                     Allocated to registers ;size:1
                                           ;@delay_ms T0LOAD                    Allocated to registers ;size:1
                                           ;@delay_ms T0DATA                    Allocated to registers ;size:1
                                           ;@delay_ms T1CR                      Allocated to registers ;size:1
                                           ;@delay_ms T1CNT                     Allocated to registers ;size:1
                                           ;@delay_ms T1LOAD                    Allocated to registers ;size:1
                                           ;@delay_ms T1DATA                    Allocated to registers ;size:1
                                           ;@delay_ms T2CR                      Allocated to registers ;size:1
                                           ;@delay_ms T2CNT                     Allocated to registers ;size:1
                                           ;@delay_ms T2LOAD                    Allocated to registers ;size:1
                                           ;@delay_ms T2DATA                    Allocated to registers ;size:1
                                           ;@delay_ms T3CR                      Allocated to registers ;size:1
                                           ;@delay_ms T3CNT                     Allocated to registers ;size:1
                                           ;@delay_ms T3LOAD                    Allocated to registers ;size:1
                                           ;@delay_ms PWM0DR                    Allocated to registers ;size:1
                                           ;@delay_ms PWM1DR                    Allocated to registers ;size:1
                                           ;@delay_ms PWM2DR                    Allocated to registers ;size:1
                                           ;@delay_ms PWMCR0                    Allocated to registers ;size:1
                                           ;@delay_ms PWMCR1                    Allocated to registers ;size:1
                                           ;@delay_ms OSCMR                     Allocated to registers ;size:1
                                           ;@delay_ms LVDCR                     Allocated to registers ;size:1
                                           ;@delay_ms ADCR0                     Allocated to registers ;size:1
                                           ;@delay_ms ADCR1                     Allocated to registers ;size:1
                                           ;@delay_ms ADCR2                     Allocated to registers ;size:1
                                           ;@delay_ms OSADJCR                   Allocated to registers ;size:1
                                           ;@delay_ms ADRH                      Allocated to registers ;size:1
                                           ;@delay_ms ADRL                      Allocated to registers ;size:1
                                           ;@delay_ms P0ADCR                    Allocated to registers ;size:1
                                           ;@delay_ms P1ADCR                    Allocated to registers ;size:1
                                           ;@delay_ms IOP2                      Allocated to registers ;size:1
                                           ;@delay_ms OEP2                      Allocated to registers ;size:1
                                           ;@delay_ms PUP2                      Allocated to registers ;size:1
                                           ;@delay_ms PDP2                      Allocated to registers ;size:1
                                           ;@delay_ms PMOD                      Allocated to registers ;size:1
                                           ;@delay_ms PWMCR3                    Allocated to registers ;size:1
                                           ;@delay_ms PWMCR2                    Allocated to registers ;size:1
                                           ;@delay_ms PFRCCR                    Allocated to registers ;size:1
                                           ;@delay_ms PFRCCAL                   Allocated to registers ;size:1
                                           ;@delay_ms EECR                      Allocated to registers ;size:1
                                           ;@delay_ms EEPR                      Allocated to registers ;size:1
                                           ;@delay_ms EEAR                      Allocated to registers ;size:1
                                           ;@delay_ms EEDRH                     Allocated to registers ;size:1
                                           ;@delay_ms EEDRL                     Allocated to registers ;size:1
                                           ;@delay_ms DBGCR                     Allocated to registers ;size:1
                                           ;@delay_ms DBGPR                     Allocated to registers ;size:1
                                           ;@delay_ms HIRCCAL                   Allocated to registers ;size:1
                                           ;@end Allocation info for local variables in function 'delay_ms';
                                           ;@Allocation info for local variables in function 'CLR_RAM'
                                           ;@end Allocation info for local variables in function 'CLR_RAM';
                                           ;@Allocation info for local variables in function 'IO_Init'
                                           ;@end Allocation info for local variables in function 'IO_Init';
                                           ;@Allocation info for local variables in function 'adc_config'
                                           ;@end Allocation info for local variables in function 'adc_config';
                                           ;@Allocation info for local variables in function 'adc_get_val'
                                           ;@adc_get_val i                         Allocated to registers r0x101F ;size:1
                                           ;@adc_get_val g_temp_value              Allocated to registers r0x1020 r0x1021 ;size:2
                                           ;@adc_get_val g_tmpbuff                 Allocated to registers r0x101B r0x101C r0x1022 r0x1024 ;size:4
                                           ;@adc_get_val g_adcmax                  Allocated to registers r0x101B r0x101C ;size:2
                                           ;@adc_get_val g_adcmin                  Allocated to registers r0x101D r0x101E ;size:2
                                           ;@end Allocation info for local variables in function 'adc_get_val';
                                           ;@Allocation info for local variables in function 'adc_get_val_once'
                                           ;@adc_get_val_once g_temp_value              Allocated to registers r0x1029 r0x1028 ;size:2
                                           ;@end Allocation info for local variables in function 'adc_get_val_once';
                                           ;@Allocation info for local variables in function 'timer3_config'
                                           ;@end Allocation info for local variables in function 'timer3_config';
                                           ;@Allocation info for local variables in function 'led_red_pwm_config'
                                           ;@end Allocation info for local variables in function 'led_red_pwm_config';
                                           ;@Allocation info for local variables in function 'led_blue_pwm_config'
                                           ;@end Allocation info for local variables in function 'led_blue_pwm_config';
                                           ;@Allocation info for local variables in function 'led_red_on'
                                           ;@end Allocation info for local variables in function 'led_red_on';
                                           ;@Allocation info for local variables in function 'led_red_off'
                                           ;@end Allocation info for local variables in function 'led_red_off';
                                           ;@Allocation info for local variables in function 'led_blue_on'
                                           ;@end Allocation info for local variables in function 'led_blue_on';
                                           ;@Allocation info for local variables in function 'led_blue_off'
                                           ;@end Allocation info for local variables in function 'led_blue_off';
                                           ;@Allocation info for local variables in function 'Sys_Init'
                                           ;@end Allocation info for local variables in function 'Sys_Init';
                                           ;@Allocation info for local variables in function 'key_scan'
                                           ;@key_scan last_key_id               Allocated to registers ;size:1
                                           ;@key_scan press_cnt                 Allocated to registers ;size:1
                                           ;@key_scan filter_cnt                Allocated to registers ;size:1
                                           ;@key_scan filter_key_id             Allocated to registers ;size:1
                                           ;@key_scan cur_key_id                Allocated to registers ;size:1
                                           ;@key_scan flag_is_key_mode_hold     Allocated to registers ;size:1
                                           ;@end Allocation info for local variables in function 'key_scan';
                                           ;@Allocation info for local variables in function 'key_scan'
                                           ;@key_scan last_key_id               Allocated to registers ;size:1
                                           ;@key_scan press_cnt                 Allocated to registers ;size:1
                                           ;@key_scan filter_cnt                Allocated to registers ;size:1
                                           ;@key_scan filter_key_id             Allocated to registers ;size:1
                                           ;@key_scan cur_key_id                Allocated to registers ;size:1
                                           ;@key_scan flag_is_key_mode_hold     Allocated to registers ;size:1
                                           ;@end Allocation info for local variables in function 'key_scan';
                                           ;@Allocation info for local variables in function 'key_event_handle'
                                           ;@end Allocation info for local variables in function 'key_event_handle';
                                           ;@Allocation info for local variables in function 'main'
                                           ;@main key_press_cnt             Allocated to registers ;size:1
                                           ;@end Allocation info for local variables in function 'main';
                                           ;@Allocation info for local variables in function 'int_isr'
                                           ;@int_isr key_scan_cnt              Allocated to registers ;size:1
                                           ;@int_isr blink_cnt                 Allocated to registers ;size:2
                                           ;@int_isr into_low_power_cnt        Allocated to registers ;size:2
                                           ;@int_isr cut_down_charge_cnt       Allocated to registers ;size:2
                                           ;@end Allocation info for local variables in function 'int_isr';
                                           ;@Allocation info for local variables in function 'int_isr'
                                           ;@int_isr key_scan_cnt              Allocated to registers ;size:1
                                           ;@int_isr blink_cnt                 Allocated to registers ;size:2
                                           ;@int_isr into_low_power_cnt        Allocated to registers ;size:2
                                           ;@int_isr cut_down_charge_cnt       Allocated to registers ;size:2
                                           ;@end Allocation info for local variables in function 'int_isr';
                                           
                                           ;--------------------------------------------------------
                                           ; overlayable items in internal ram 
                                           ;--------------------------------------------------------
                                           ;	udata_ovr
                                           ;--------------------------------------------------------
                                           ; reset vector 
                                           ;--------------------------------------------------------
                                           STARTUP	code 0x0000
                                           	goto	_main
                                           ;--------------------------------------------------------
                                           ; interrupt and initialization code
                                           ;--------------------------------------------------------
                                           c_interrupt	code	0x8
                                           __sdcc_interrupt
                                           ;***
                                           ;  pBlock Stats: dbName = I
                                           ;***
                                           ;entry:  _int_isr	;Function start
                                           ; 0 exit points
                                           ;functions called:
                                           ;   _key_scan
                                           ;   _key_scan
                                           ;2 compiler assigned registers:
                                           ;   r0x102C
                                           ;   r0x102D
                                           ;; Starting pCode block
                                           _int_isr	;Function start
                                           ; 0 exit points
                                           ;	.line	630; "MC32F7361.c"	__endasm;
                                           	;
                                           	movra	_abuf;
                                           	swapar	_PFLAG;
                                           	movra	_statusbuf;
                                           	
                                           ;	.line	632; "MC32F7361.c"	if (T3IF & T3IE)
                                           	CLRR	r0x102C
                                           	JBCLR	_INTFbits,7
                                           	INCR	r0x102C
                                           	CLRR	r0x102D
                                           	JBCLR	_INTEbits,7
                                           	INCR	r0x102D
                                           	MOVAR	r0x102D
                                           	ANDRA	r0x102C
                                           	MOVAI	0x00
                                           	ORAR	r0x102C
                                           	JBCLR	PFLAG,2
                                           	GOTO	_00568_DS_
                                           ;	.line	639; "MC32F7361.c"	key_scan_cnt++;
                                           	INCR	_int_isr_key_scan_cnt_196608_125
                                           ;;unsigned compare: left < lit(0xA=10), size=1
                                           ;	.line	640; "MC32F7361.c"	if (key_scan_cnt >= 10)
                                           	MOVAI	0x0a
                                           	RSUBAR	_int_isr_key_scan_cnt_196608_125
                                           	JBSET	PFLAG,0
                                           	GOTO	_00530_DS_
                                           ;;genSkipc:3291: created from rifx:013B5EFC
                                           ;	.line	642; "MC32F7361.c"	key_scan_cnt = 0;
                                           	CLRR	_int_isr_key_scan_cnt_196608_125
                                           ;	.line	643; "MC32F7361.c"	key_scan();
                                           	CALL	_key_scan
                                           _00530_DS_
                                           ;	.line	649; "MC32F7361.c"	if (flag_is_power_low)
                                           	JBSET	_flag1,3
                                           	GOTO	_00547_DS_
                                           ;	.line	651; "MC32F7361.c"	blink_cnt++;
                                           	INCR	_int_isr_blink_cnt_196608_127
                                           	JBCLR	PFLAG,2
                                           	INCR	(_int_isr_blink_cnt_196608_127 + 1)
                                           ;;swapping arguments (AOP_TYPEs 1/3)
                                           ;;unsigned compare: left >= lit(0x3E9=1001), size=2
                                           ;	.line	652; "MC32F7361.c"	if (blink_cnt <= 1000)
                                           	MOVAI	0x03
                                           	RSUBAR	(_int_isr_blink_cnt_196608_127 + 1)
                                           	JBSET	PFLAG,2
                                           	GOTO	_00628_DS_
                                           	MOVAI	0xe9
                                           	RSUBAR	_int_isr_blink_cnt_196608_127
                                           _00628_DS_
                                           	JBCLR	PFLAG,0
                                           	GOTO	_00541_DS_
                                           ;;genSkipc:3291: created from rifx:013B5EFC
                                           ;	.line	654; "MC32F7361.c"	LED_GREEN_ON();
                                           	BSET	_IOP1bits,3
                                           	GOTO	_00548_DS_
                                           ;;swapping arguments (AOP_TYPEs 1/3)
                                           ;;unsigned compare: left >= lit(0x7D1=2001), size=2
                                           _00541_DS_
                                           ;	.line	656; "MC32F7361.c"	else if (blink_cnt <= 2000)
                                           	MOVAI	0x07
                                           	RSUBAR	(_int_isr_blink_cnt_196608_127 + 1)
                                           	JBSET	PFLAG,2
                                           	GOTO	_00629_DS_
                                           	MOVAI	0xd1
                                           	RSUBAR	_int_isr_blink_cnt_196608_127
                                           _00629_DS_
                                           	JBCLR	PFLAG,0
                                           	GOTO	_00538_DS_
                                           ;;genSkipc:3291: created from rifx:013B5EFC
                                           ;	.line	658; "MC32F7361.c"	LED_GREEN_OFF();
                                           	BCLR	_IOP1bits,3
                                           	GOTO	_00548_DS_
                                           _00538_DS_
                                           ;	.line	662; "MC32F7361.c"	blink_cnt = 0;
                                           	CLRR	_int_isr_blink_cnt_196608_127
                                           	CLRR	(_int_isr_blink_cnt_196608_127 + 1)
                                           	GOTO	_00548_DS_
                                           _00547_DS_
                                           ;	.line	667; "MC32F7361.c"	blink_cnt = 0;
                                           	CLRR	_int_isr_blink_cnt_196608_127
                                           	CLRR	(_int_isr_blink_cnt_196608_127 + 1)
                                           ;	.line	668; "MC32F7361.c"	LED_GREEN_OFF();
                                           	BCLR	_IOP1bits,3
                                           _00548_DS_
                                           ;	.line	673; "MC32F7361.c"	if (flag_is_dev_open)
                                           	JBSET	_flag1,0
                                           	GOTO	_00552_DS_
                                           ;	.line	675; "MC32F7361.c"	power_off_cnt++;
                                           	INCR	_power_off_cnt
                                           	JBCLR	PFLAG,2
                                           	INCR	(_power_off_cnt + 1)
                                           	JBCLR	PFLAG,2
                                           	INCR	(_power_off_cnt + 2)
                                           	JBCLR	PFLAG,2
                                           	INCR	(_power_off_cnt + 3)
                                           ;;unsigned compare: left < lit(0x518C4=334020), size=4
                                           ;	.line	677; "MC32F7361.c"	if (power_off_cnt >= 334020) // 6min
                                           	MOVAI	0x00
                                           	RSUBAR	(_power_off_cnt + 3)
                                           	JBSET	PFLAG,2
                                           	GOTO	_00630_DS_
                                           	MOVAI	0x05
                                           	RSUBAR	(_power_off_cnt + 2)
                                           	JBSET	PFLAG,2
                                           	GOTO	_00630_DS_
                                           	MOVAI	0x18
                                           	RSUBAR	(_power_off_cnt + 1)
                                           	JBSET	PFLAG,2
                                           	GOTO	_00630_DS_
                                           	MOVAI	0xc4
                                           	RSUBAR	_power_off_cnt
                                           _00630_DS_
                                           	JBSET	PFLAG,0
                                           	GOTO	_00553_DS_
                                           ;;genSkipc:3291: created from rifx:013B5EFC
                                           ;	.line	679; "MC32F7361.c"	power_off_cnt = 0;
                                           	CLRR	_power_off_cnt
                                           	CLRR	(_power_off_cnt + 1)
                                           	CLRR	(_power_off_cnt + 2)
                                           	CLRR	(_power_off_cnt + 3)
                                           ;	.line	680; "MC32F7361.c"	flag_is_dev_open = 0;
                                           	BCLR	_flag1,0
                                           ;	.line	681; "MC32F7361.c"	flag_is_enable_into_low_power = 1; // 
                                           	BSET	_flag1,4
                                           	GOTO	_00553_DS_
                                           _00552_DS_
                                           ;	.line	688; "MC32F7361.c"	power_off_cnt = 0;
                                           	CLRR	_power_off_cnt
                                           	CLRR	(_power_off_cnt + 1)
                                           	CLRR	(_power_off_cnt + 2)
                                           	CLRR	(_power_off_cnt + 3)
                                           _00553_DS_
                                           ;	.line	694; "MC32F7361.c"	if (0 == flag_is_enable_into_low_power &&
                                           	JBCLR	_flag1,4
                                           	GOTO	_00557_DS_
                                           ;	.line	695; "MC32F7361.c"	0 == flag_is_dev_open &&
                                           	JBCLR	_flag1,0
                                           	GOTO	_00557_DS_
                                           ;	.line	696; "MC32F7361.c"	0 == flag_is_in_charging)
                                           	JBCLR	_flag1,1
                                           	GOTO	_00557_DS_
                                           ;	.line	699; "MC32F7361.c"	into_low_power_cnt++;
                                           	INCR	_int_isr_into_low_power_cnt_196608_143
                                           	JBCLR	PFLAG,2
                                           	INCR	(_int_isr_into_low_power_cnt_196608_143 + 1)
                                           ;;unsigned compare: left < lit(0x3E8=1000), size=2
                                           ;	.line	700; "MC32F7361.c"	if (into_low_power_cnt >= 1000) // xx ms
                                           	MOVAI	0x03
                                           	RSUBAR	(_int_isr_into_low_power_cnt_196608_143 + 1)
                                           	JBSET	PFLAG,2
                                           	GOTO	_00631_DS_
                                           	MOVAI	0xe8
                                           	RSUBAR	_int_isr_into_low_power_cnt_196608_143
                                           _00631_DS_
                                           	JBSET	PFLAG,0
                                           	GOTO	_00558_DS_
                                           ;;genSkipc:3291: created from rifx:013B5EFC
                                           ;	.line	702; "MC32F7361.c"	into_low_power_cnt = 0;
                                           	CLRR	_int_isr_into_low_power_cnt_196608_143
                                           	CLRR	(_int_isr_into_low_power_cnt_196608_143 + 1)
                                           ;	.line	703; "MC32F7361.c"	flag_is_enable_into_low_power = 1;
                                           	BSET	_flag1,4
                                           	GOTO	_00558_DS_
                                           _00557_DS_
                                           ;	.line	708; "MC32F7361.c"	into_low_power_cnt = 0;
                                           	CLRR	_int_isr_into_low_power_cnt_196608_143
                                           	CLRR	(_int_isr_into_low_power_cnt_196608_143 + 1)
                                           _00558_DS_
                                           ;	.line	719; "MC32F7361.c"	if (flag_is_in_charging && 0 == flag_is_full_charged)
                                           	JBSET	_flag1,1
                                           	GOTO	_00564_DS_
                                           	JBCLR	_flag1,2
                                           	GOTO	_00564_DS_
                                           ;	.line	721; "MC32F7361.c"	cut_down_charge_cnt++;
                                           	INCR	_int_isr_cut_down_charge_cnt_196608_147
                                           	JBCLR	PFLAG,2
                                           	INCR	(_int_isr_cut_down_charge_cnt_196608_147 + 1)
                                           ;;unsigned compare: left < lit(0x1388=5000), size=2
                                           ;	.line	722; "MC32F7361.c"	if (cut_down_charge_cnt >= 5000) // xx ms
                                           	MOVAI	0x13
                                           	RSUBAR	(_int_isr_cut_down_charge_cnt_196608_147 + 1)
                                           	JBSET	PFLAG,2
                                           	GOTO	_00632_DS_
                                           	MOVAI	0x88
                                           	RSUBAR	_int_isr_cut_down_charge_cnt_196608_147
                                           _00632_DS_
                                           	JBSET	PFLAG,0
                                           	GOTO	_00565_DS_
                                           ;;genSkipc:3291: created from rifx:013B5EFC
                                           ;	.line	724; "MC32F7361.c"	cut_down_charge_cnt = 0;
                                           	CLRR	_int_isr_cut_down_charge_cnt_196608_147
                                           	CLRR	(_int_isr_cut_down_charge_cnt_196608_147 + 1)
                                           ;	.line	725; "MC32F7361.c"	flag_is_cut_down_charge = 1;
                                           	BSET	_flag1,5
                                           	GOTO	_00565_DS_
                                           _00564_DS_
                                           ;	.line	730; "MC32F7361.c"	cut_down_charge_cnt = 0;
                                           	CLRR	_int_isr_cut_down_charge_cnt_196608_147
                                           	CLRR	(_int_isr_cut_down_charge_cnt_196608_147 + 1)
                                           ;	.line	731; "MC32F7361.c"	flag_is_cut_down_charge = 0; // 
                                           	BCLR	_flag1,5
                                           _00565_DS_
                                           ;	.line	735; "MC32F7361.c"	T3IF = 0;
                                           	BCLR	_INTFbits,7
                                           _00568_DS_
                                           ;	.line	743; "MC32F7361.c"	__endasm;
                                           	;
                                           	swapar	_statusbuf;
                                           	movra	_PFLAG;
                                           	swapr	_abuf;
                                           	swapar	_abuf;
                                           	
                                           END_OF_INTERRUPT
                                           ;	.line	744; "MC32F7361.c"	}
                                           	RETIE	
                                           
                                           ;--------------------------------------------------------
                                           ; code
                                           ;--------------------------------------------------------
                                           code_MC32F7361	code
                                           ;***
                                           ;  pBlock Stats: dbName = M
                                           ;***
                                           ;entry:  _main	;Function start
                                           ; 2 exit points
                                           ;has an exit
                                           ;functions called:
                                           ;   _Sys_Init
                                           ;   _delay_ms
                                           ;   _delay_ms
                                           ;   _adc_get_val
                                           ;   _delay_ms
                                           ;   _delay_ms
                                           ;   _led_red_off
                                           ;   _led_blue_off
                                           ;   _adc_get_val
                                           ;   _key_event_handle
                                           ;   _led_blue_off
                                           ;   _led_red_off
                                           ;   _Sys_Init
                                           ;   _delay_ms
                                           ;   _delay_ms
                                           ;   _key_event_handle
                                           ;   _Sys_Init
                                           ;   _delay_ms
                                           ;   _delay_ms
                                           ;   _adc_get_val
                                           ;   _delay_ms
                                           ;   _delay_ms
                                           ;   _led_red_off
                                           ;   _led_blue_off
                                           ;   _adc_get_val
                                           ;   _key_event_handle
                                           ;   _led_blue_off
                                           ;   _led_red_off
                                           ;   _Sys_Init
                                           ;   _delay_ms
                                           ;   _delay_ms
                                           ;   _key_event_handle
                                           ;1 compiler assigned register :
                                           ;   STK00
                                           ;; Starting pCode block
                                           _main	;Function start
                                           ; 2 exit points
                                           ;	.line	384; "MC32F7361.c"	Sys_Init();
                                           	CALL	_Sys_Init
                                           ;	.line	396; "MC32F7361.c"	flag_is_enable_into_low_power = 1; // 
                                           	BSET	_flag1,4
                                           _00422_DS_
                                           ;	.line	404; "MC32F7361.c"	if (0 == flag_is_in_charging)
                                           	JBCLR	_flag1,1
                                           	GOTO	_00371_DS_
                                           ;	.line	406; "MC32F7361.c"	if (CHARGE_SCAN_PIN)
                                           	JBSET	_IOP0bits,4
                                           	GOTO	_00372_DS_
                                           ;	.line	409; "MC32F7361.c"	delay_ms(100);
                                           	MOVAI	0x64
                                           	MOVRA	STK00
                                           	MOVAI	0x00
                                           	CALL	_delay_ms
                                           ;	.line	410; "MC32F7361.c"	if (CHARGE_SCAN_PIN)
                                           	JBSET	_IOP0bits,4
                                           	GOTO	_00372_DS_
                                           ;	.line	412; "MC32F7361.c"	flag_is_in_charging = 1;
                                           	BSET	_flag1,1
                                           ;	.line	413; "MC32F7361.c"	P15D = 1; // 
                                           	BSET	_IOP1bits,5
                                           	GOTO	_00372_DS_
                                           _00371_DS_
                                           ;	.line	420; "MC32F7361.c"	if (0 == CHARGE_SCAN_PIN)
                                           	JBCLR	_IOP0bits,4
                                           	GOTO	_00372_DS_
                                           ;	.line	423; "MC32F7361.c"	delay_ms(100);
                                           	MOVAI	0x64
                                           	MOVRA	STK00
                                           	MOVAI	0x00
                                           	CALL	_delay_ms
                                           ;	.line	424; "MC32F7361.c"	if (0 == CHARGE_SCAN_PIN)
                                           	JBCLR	_IOP0bits,4
                                           	GOTO	_00372_DS_
                                           ;	.line	426; "MC32F7361.c"	flag_is_in_charging = 0;
                                           	BCLR	_flag1,1
                                           ;	.line	427; "MC32F7361.c"	flag_is_full_charged = 0;
                                           	BCLR	_flag1,2
                                           _00372_DS_
                                           ;	.line	433; "MC32F7361.c"	if (flag_is_in_charging)
                                           	JBSET	_flag1,1
                                           	GOTO	_00388_DS_
                                           ;	.line	435; "MC32F7361.c"	adc_val = adc_get_val();
                                           	CALL	_adc_get_val
                                           	MOVRA	(_adc_val + 1)
                                           	MOVAR	STK00
                                           	MOVRA	_adc_val
                                           ;;unsigned compare: left < lit(0x875=2165), size=2
                                           ;	.line	445; "MC32F7361.c"	if (adc_val >= 2165) //  4.23V ======================================
                                           	MOVAI	0x08
                                           	RSUBAR	(_adc_val + 1)
                                           	JBSET	PFLAG,2
                                           	GOTO	_00522_DS_
                                           	MOVAI	0x75
                                           	RSUBAR	_adc_val
                                           _00522_DS_
                                           	JBSET	PFLAG,0
                                           	GOTO	_00374_DS_
                                           ;;genSkipc:3291: created from rifx:013B5EFC
                                           ;	.line	447; "MC32F7361.c"	flag_is_full_charged = 1;
                                           	BSET	_flag1,2
                                           ;	.line	448; "MC32F7361.c"	P15D = 0; // 
                                           	BCLR	_IOP1bits,5
                                           ;	.line	450; "MC32F7361.c"	delay_ms(10000);
                                           	MOVAI	0x10
                                           	MOVRA	STK00
                                           	MOVAI	0x27
                                           	CALL	_delay_ms
                                           	GOTO	_00375_DS_
                                           _00374_DS_
                                           ;	.line	456; "MC32F7361.c"	flag_is_full_charged = 0;
                                           	BCLR	_flag1,2
                                           ;	.line	457; "MC32F7361.c"	P15D = 1; // 
                                           	BSET	_IOP1bits,5
                                           _00375_DS_
                                           ;	.line	460; "MC32F7361.c"	if (flag_is_cut_down_charge && 0 == flag_is_full_charged)
                                           	JBSET	_flag1,5
                                           	GOTO	_00381_DS_
                                           	JBCLR	_flag1,2
                                           	GOTO	_00381_DS_
                                           ;	.line	462; "MC32F7361.c"	flag_is_cut_down_charge = 0;
                                           	BCLR	_flag1,5
                                           ;	.line	463; "MC32F7361.c"	P15D = 0; // 
                                           	BCLR	_IOP1bits,5
                                           ;	.line	464; "MC32F7361.c"	delay_ms(10);
                                           	MOVAI	0x0a
                                           	MOVRA	STK00
                                           	MOVAI	0x00
                                           	CALL	_delay_ms
                                           ;	.line	465; "MC32F7361.c"	if (CHARGE_SCAN_PIN)
                                           	JBSET	_IOP0bits,4
                                           	GOTO	_00381_DS_
                                           ;	.line	468; "MC32F7361.c"	P15D = 1; // 
                                           	BSET	_IOP1bits,5
                                           _00381_DS_
                                           ;	.line	473; "MC32F7361.c"	LED_RED_OFF();
                                           	CALL	_led_red_off
                                           ;	.line	474; "MC32F7361.c"	LED_BLUE_OFF();
                                           	CALL	_led_blue_off
                                           ;	.line	475; "MC32F7361.c"	flag_is_dev_open = 0;
                                           	BCLR	_flag1,0
                                           ;	.line	476; "MC32F7361.c"	flag_is_enable_into_low_power = 1; // 
                                           	BSET	_flag1,4
                                           ;	.line	478; "MC32F7361.c"	led_mode = LED_MODE_RED_AND_BLUE; // +
                                           	MOVAI	0x02
                                           	MOVRA	_led_mode
                                           _00388_DS_
                                           ;	.line	481; "MC32F7361.c"	if (flag_is_dev_open && 0 == flag_is_in_charging)
                                           	JBSET	_flag1,0
                                           	GOTO	_00394_DS_
                                           	JBCLR	_flag1,1
                                           	GOTO	_00394_DS_
                                           ;	.line	484; "MC32F7361.c"	adc_val = adc_get_val();
                                           	CALL	_adc_get_val
                                           	MOVRA	(_adc_val + 1)
                                           	MOVAR	STK00
                                           	MOVRA	_adc_val
                                           ;;unsigned compare: left < lit(0x699=1689), size=2
                                           ;	.line	487; "MC32F7361.c"	if (adc_val < 1689) // 3.3V
                                           	MOVAI	0x06
                                           	RSUBAR	(_adc_val + 1)
                                           	JBSET	PFLAG,2
                                           	GOTO	_00523_DS_
                                           	MOVAI	0x99
                                           	RSUBAR	_adc_val
                                           _00523_DS_
                                           	JBCLR	PFLAG,0
                                           	GOTO	_00390_DS_
                                           ;;genSkipc:3291: created from rifx:013B5EFC
                                           ;	.line	489; "MC32F7361.c"	flag_is_power_low = 1;
                                           	BSET	_flag1,3
                                           ;;unsigned compare: left < lit(0x5CC=1484), size=2
                                           _00390_DS_
                                           ;	.line	494; "MC32F7361.c"	if (adc_val < 1484) // 2.8984V
                                           	MOVAI	0x05
                                           	RSUBAR	(_adc_val + 1)
                                           	JBSET	PFLAG,2
                                           	GOTO	_00524_DS_
                                           	MOVAI	0xcc
                                           	RSUBAR	_adc_val
                                           _00524_DS_
                                           	JBCLR	PFLAG,0
                                           	GOTO	_00395_DS_
                                           ;;genSkipc:3291: created from rifx:013B5EFC
                                           ;	.line	496; "MC32F7361.c"	flag_is_dev_open = 0;              // 
                                           	BCLR	_flag1,0
                                           ;	.line	497; "MC32F7361.c"	flag_is_enable_into_low_power = 1; // 
                                           	BSET	_flag1,4
                                           	GOTO	_00395_DS_
                                           _00394_DS_
                                           ;	.line	502; "MC32F7361.c"	flag_is_power_low = 0;
                                           	BCLR	_flag1,3
                                           _00395_DS_
                                           ;	.line	505; "MC32F7361.c"	key_event_handle();
                                           	CALL	_key_event_handle
                                           ;	.line	508; "MC32F7361.c"	if (0 == flag_is_dev_open &&       // 
                                           	JBCLR	_flag1,0
                                           	GOTO	_00417_DS_
                                           ;	.line	509; "MC32F7361.c"	0 == flag_is_in_charging &&    // 
                                           	JBCLR	_flag1,1
                                           	GOTO	_00417_DS_
                                           ;	.line	510; "MC32F7361.c"	KEY_SCAN_PIN &&                /* () */
                                           	JBSET	_IOP0bits,0
                                           	GOTO	_00417_DS_
                                           ;	.line	511; "MC32F7361.c"	flag_is_enable_into_low_power) /*  */
                                           	JBSET	_flag1,4
                                           	GOTO	_00417_DS_
                                           ;	.line	516; "MC32F7361.c"	GIE = 0;      // 
                                           	BCLR	_MCRbits,7
                                           ;	.line	517; "MC32F7361.c"	DRVCR = 0x80; // IO
                                           	MOVAI	0x80
                                           	MOVRA	_DRVCR
                                           ;	.line	518; "MC32F7361.c"	LED_BLUE_OFF();
                                           	CALL	_led_blue_off
                                           ;	.line	519; "MC32F7361.c"	LED_GREEN_OFF();
                                           	BCLR	_IOP1bits,3
                                           ;	.line	520; "MC32F7361.c"	LED_RED_OFF();
                                           	CALL	_led_red_off
                                           ;	.line	521; "MC32F7361.c"	P15D = 0; // 
                                           	BCLR	_IOP1bits,5
                                           ;	.line	528; "MC32F7361.c"	T3EN = 0;
                                           	BCLR	_T3CRbits,7
                                           ;	.line	529; "MC32F7361.c"	T3IE = 0;
                                           	BCLR	_INTEbits,7
                                           ;	.line	532; "MC32F7361.c"	ADCHS3 = 0;
                                           	BCLR	_ADCR0bits,7
                                           ;	.line	533; "MC32F7361.c"	ADCHS2 = 0;
                                           	BCLR	_ADCR0bits,6
                                           ;	.line	534; "MC32F7361.c"	ADCHS1 = 0;
                                           	BCLR	_ADCR0bits,5
                                           ;	.line	535; "MC32F7361.c"	ADCHS0 = 0;
                                           	BCLR	_ADCR0bits,4
                                           ;	.line	536; "MC32F7361.c"	ADEN = 0; // adc
                                           	BCLR	_ADCR0bits,0
                                           ;	.line	539; "MC32F7361.c"	P00KE = 1;
                                           	BSET	_P0KBCRbits,0
                                           ;	.line	544; "MC32F7361.c"	P04KE = 1;
                                           	BSET	_P0KBCRbits,4
                                           ;	.line	546; "MC32F7361.c"	KBIF = 0;
                                           	BCLR	_INTFbits,4
                                           ;	.line	547; "MC32F7361.c"	KBIE = 1;
                                           	BSET	_INTEbits,4
                                           ;	.line	548; "MC32F7361.c"	LVDEN = 0;
                                           	BCLR	_LVDCRbits,7
                                           ;	.line	549; "MC32F7361.c"	HFEN = 0; // 
                                           	BCLR	_OSCMRbits,0
                                           ;	.line	550; "MC32F7361.c"	LFEN = 0; // 
                                           	BCLR	_OSCMRbits,1
                                           ;	.line	552; "MC32F7361.c"	Nop();
                                           	nop	
                                           ;	.line	553; "MC32F7361.c"	Nop();
                                           	nop	
                                           ;	.line	554; "MC32F7361.c"	Stop();
                                           	stop	
                                           ;	.line	555; "MC32F7361.c"	Nop();
                                           	nop	
                                           ;	.line	556; "MC32F7361.c"	Nop();
                                           	nop	
                                           ;	.line	557; "MC32F7361.c"	HFEN = 1; // 
                                           	BSET	_OSCMRbits,0
                                           ;	.line	558; "MC32F7361.c"	LVDEN = 1;
                                           	BSET	_LVDCRbits,7
                                           ;	.line	559; "MC32F7361.c"	P00KE = 0;
                                           	BCLR	_P0KBCRbits,0
                                           ;	.line	563; "MC32F7361.c"	P04KE = 0;
                                           	BCLR	_P0KBCRbits,4
                                           ;	.line	565; "MC32F7361.c"	KBIE = 0;
                                           	BCLR	_INTEbits,4
                                           ;	.line	566; "MC32F7361.c"	KBIF = 0;
                                           	BCLR	_INTFbits,4
                                           ;	.line	568; "MC32F7361.c"	Sys_Init(); // 0,
                                           	CALL	_Sys_Init
                                           ;	.line	569; "MC32F7361.c"	delay_ms(1);
                                           	MOVAI	0x01
                                           	MOVRA	STK00
                                           	MOVAI	0x00
                                           	CALL	_delay_ms
                                           ;	.line	570; "MC32F7361.c"	GIE = 1;
                                           	BSET	_MCRbits,7
                                           ;	.line	576; "MC32F7361.c"	if (0 == KEY_SCAN_PIN) // 
                                           	JBCLR	_IOP0bits,0
                                           	GOTO	_00417_DS_
                                           ;	.line	583; "MC32F7361.c"	volatile u8 key_press_cnt = 0;
                                           	CLRR	_main_key_press_cnt_262144_118
                                           ;	.line	585; "MC32F7361.c"	T3IE = 0;  // 
                                           	BCLR	_INTEbits,7
                                           ;	.line	586; "MC32F7361.c"	T3EN = 0;  // 
                                           	BCLR	_T3CRbits,7
                                           ;	.line	587; "MC32F7361.c"	T3CNT = 0; // 
                                           	CLRR	_T3CNT
                                           _00409_DS_
                                           ;	.line	589; "MC32F7361.c"	while (0 == KEY_SCAN_PIN)
                                           	JBCLR	_IOP0bits,0
                                           	GOTO	_00411_DS_
                                           ;;unsigned compare: left < lit(0xFF=255), size=1
                                           ;	.line	591; "MC32F7361.c"	if (key_press_cnt < 255)
                                           	MOVAI	0xff
                                           	RSUBAR	_main_key_press_cnt_262144_118
                                           	JBCLR	PFLAG,0
                                           	GOTO	_00408_DS_
                                           ;;genSkipc:3291: created from rifx:013B5EFC
                                           ;	.line	593; "MC32F7361.c"	key_press_cnt++;
                                           	INCR	_main_key_press_cnt_262144_118
                                           _00408_DS_
                                           ;	.line	596; "MC32F7361.c"	delay_ms(10);
                                           	MOVAI	0x0a
                                           	MOVRA	STK00
                                           	MOVAI	0x00
                                           	CALL	_delay_ms
                                           	GOTO	_00409_DS_
                                           ;;unsigned compare: left < lit(0x4B=75), size=1
                                           _00411_DS_
                                           ;	.line	599; "MC32F7361.c"	if (key_press_cnt < 75) // 750ms
                                           	MOVAI	0x4b
                                           	RSUBAR	_main_key_press_cnt_262144_118
                                           	JBCLR	PFLAG,0
                                           	GOTO	_00413_DS_
                                           ;;genSkipc:3291: created from rifx:013B5EFC
                                           ;	.line	601; "MC32F7361.c"	key_event = KEY_EVENT_PRESS;
                                           	MOVAI	0x01
                                           	MOVRA	_key_event
                                           ;	.line	602; "MC32F7361.c"	key_event_handle();
                                           	CALL	_key_event_handle
                                           _00413_DS_
                                           ;	.line	605; "MC32F7361.c"	T3IE = 1; // 
                                           	BSET	_INTEbits,7
                                           ;	.line	606; "MC32F7361.c"	T3EN = 1; // 
                                           	BSET	_T3CRbits,7
                                           _00417_DS_
                                           ;	.line	615; "MC32F7361.c"	__endasm;
                                           	;
                                           	clrwdt;
                                           	
                                           	GOTO	_00422_DS_
                                           ;	.line	617; "MC32F7361.c"	}
                                           	RETURN	
                                           ; exit point of _main
                                           
                                           ;***
                                           ;  pBlock Stats: dbName = C
                                           ;***
                                           ;entry:  _key_event_handle	;Function start
                                           ; 2 exit points
                                           ;has an exit
                                           ;functions called:
                                           ;   _led_red_off
                                           ;   _led_blue_on
                                           ;   _led_red_on
                                           ;   _led_blue_on
                                           ;   _led_blue_off
                                           ;   _led_red_on
                                           ;   _led_red_on
                                           ;   _led_red_off
                                           ;   _led_blue_off
                                           ;   _led_red_off
                                           ;   _led_blue_on
                                           ;   _led_red_on
                                           ;   _led_blue_on
                                           ;   _led_blue_off
                                           ;   _led_red_on
                                           ;   _led_red_on
                                           ;   _led_red_off
                                           ;   _led_blue_off
                                           ;; Starting pCode block
                                           _key_event_handle	;Function start
                                           ; 2 exit points
                                           ;	.line	304; "MC32F7361.c"	if (flag_is_in_charging)
                                           	JBSET	_flag1,1
                                           	GOTO	_00311_DS_
                                           ;	.line	307; "MC32F7361.c"	key_event = KEY_EVENT_NONE;
                                           	CLRR	_key_event
                                           ;	.line	308; "MC32F7361.c"	return;
                                           	GOTO	_00357_DS_
                                           _00311_DS_
                                           ;	.line	311; "MC32F7361.c"	if (KEY_EVENT_PRESS == key_event)
                                           	MOVAR	_key_event
                                           	XORAI	0x01
                                           	JBSET	PFLAG,2
                                           	GOTO	_00355_DS_
                                           ;	.line	313; "MC32F7361.c"	if (flag_is_dev_open)
                                           	JBSET	_flag1,0
                                           	GOTO	_00342_DS_
                                           ;	.line	315; "MC32F7361.c"	if (LED_MODE_RED == led_mode)
                                           	MOVAI	0x00
                                           	ORAR	_led_mode
                                           	JBSET	PFLAG,2
                                           	GOTO	_00336_DS_
                                           ;	.line	318; "MC32F7361.c"	LED_BLUE_TIMER_DATA = LED_BLUE_LUMINANCE;
                                           	CLRR	_T0DATA
                                           ;	.line	319; "MC32F7361.c"	LED_RED_OFF(); 
                                           	CALL	_led_red_off
                                           ;	.line	320; "MC32F7361.c"	LED_BLUE_ON(); 
                                           	CALL	_led_blue_on
                                           ;	.line	321; "MC32F7361.c"	led_mode = LED_MODE_BLUE;
                                           	MOVAI	0x01
                                           	MOVRA	_led_mode
                                           	GOTO	_00337_DS_
                                           _00336_DS_
                                           ;	.line	323; "MC32F7361.c"	else if (LED_MODE_BLUE == led_mode)
                                           	MOVAR	_led_mode
                                           	XORAI	0x01
                                           	JBSET	PFLAG,2
                                           	GOTO	_00333_DS_
                                           ;	.line	326; "MC32F7361.c"	LED_RED_TIMER_DATA = LED_RED_BLUE_LUMINANCE;
                                           	MOVAI	0x5a
                                           	MOVRA	_T1DATA
                                           ;	.line	327; "MC32F7361.c"	LED_BLUE_TIMER_DATA = LED_BLUE_LUMINANCE;
                                           	CLRR	_T0DATA
                                           ;	.line	328; "MC32F7361.c"	LED_RED_ON();
                                           	CALL	_led_red_on
                                           ;	.line	329; "MC32F7361.c"	LED_BLUE_ON();
                                           	CALL	_led_blue_on
                                           ;	.line	330; "MC32F7361.c"	led_mode = LED_MODE_RED_AND_BLUE;                 
                                           	MOVAI	0x02
                                           	MOVRA	_led_mode
                                           	GOTO	_00337_DS_
                                           _00333_DS_
                                           ;	.line	332; "MC32F7361.c"	else if (LED_MODE_RED_AND_BLUE == led_mode)
                                           	MOVAR	_led_mode
                                           	XORAI	0x02
                                           	JBSET	PFLAG,2
                                           	GOTO	_00337_DS_
                                           ;	.line	335; "MC32F7361.c"	LED_RED_TIMER_DATA = LED_RED_LUMINANCE;
                                           	MOVAI	0x5a
                                           	MOVRA	_T1DATA
                                           ;	.line	336; "MC32F7361.c"	LED_BLUE_OFF();
                                           	CALL	_led_blue_off
                                           ;	.line	337; "MC32F7361.c"	LED_RED_ON();
                                           	CALL	_led_red_on
                                           ;	.line	338; "MC32F7361.c"	led_mode = LED_MODE_RED;
                                           	CLRR	_led_mode
                                           _00337_DS_
                                           ;	.line	341; "MC32F7361.c"	power_off_cnt = 0; // 
                                           	CLRR	_power_off_cnt
                                           	CLRR	(_power_off_cnt + 1)
                                           	CLRR	(_power_off_cnt + 2)
                                           	CLRR	(_power_off_cnt + 3)
                                           	GOTO	_00356_DS_
                                           _00342_DS_
                                           ;	.line	346; "MC32F7361.c"	LED_RED_TIMER_DATA = LED_RED_LUMINANCE; 
                                           	MOVAI	0x5a
                                           	MOVRA	_T1DATA
                                           ;	.line	347; "MC32F7361.c"	LED_RED_ON(); 
                                           	CALL	_led_red_on
                                           ;	.line	348; "MC32F7361.c"	led_mode = LED_MODE_RED; // 
                                           	CLRR	_led_mode
                                           ;	.line	349; "MC32F7361.c"	flag_is_dev_open = 1;
                                           	BSET	_flag1,0
                                           	GOTO	_00356_DS_
                                           _00355_DS_
                                           ;	.line	352; "MC32F7361.c"	else if (KEY_EVENT_HOLD == key_event)
                                           	MOVAR	_key_event
                                           	XORAI	0x02
                                           	JBSET	PFLAG,2
                                           	GOTO	_00356_DS_
                                           ;	.line	354; "MC32F7361.c"	if (flag_is_dev_open)
                                           	JBSET	_flag1,0
                                           	GOTO	_00351_DS_
                                           ;	.line	356; "MC32F7361.c"	LED_RED_OFF();
                                           	CALL	_led_red_off
                                           ;	.line	357; "MC32F7361.c"	LED_BLUE_OFF();
                                           	CALL	_led_blue_off
                                           ;	.line	358; "MC32F7361.c"	flag_is_dev_open = 0;
                                           	BCLR	_flag1,0
                                           _00351_DS_
                                           ;	.line	369; "MC32F7361.c"	flag_is_enable_into_low_power = 1; // 
                                           	BSET	_flag1,4
                                           _00356_DS_
                                           ;	.line	373; "MC32F7361.c"	key_event = KEY_EVENT_NONE;
                                           	CLRR	_key_event
                                           _00357_DS_
                                           ;	.line	374; "MC32F7361.c"	}
                                           	RETURN	
                                           ; exit point of _key_event_handle
                                           
                                           ;***
                                           ;  pBlock Stats: dbName = C
                                           ;***
                                           ;entry:  _key_scan	;Function start
                                           ; 2 exit points
                                           ;has an exit
                                           ;; Starting pCode block
                                           _key_scan	;Function start
                                           ; 2 exit points
                                           ;	.line	226; "MC32F7361.c"	volatile u8 cur_key_id = KEY_ID_NONE;
                                           	CLRR	_key_scan_cur_key_id_65536_46
                                           ;	.line	229; "MC32F7361.c"	if (0 == KEY_SCAN_PIN)
                                           	JBCLR	_IOP0bits,0
                                           	GOTO	_00226_DS_
                                           ;	.line	231; "MC32F7361.c"	cur_key_id = KEY_ID_BUTTOM;
                                           	MOVAI	0x01
                                           	MOVRA	_key_scan_cur_key_id_65536_46
                                           	GOTO	_00227_DS_
                                           _00226_DS_
                                           ;	.line	235; "MC32F7361.c"	cur_key_id = KEY_ID_NONE;
                                           	CLRR	_key_scan_cur_key_id_65536_46
                                           _00227_DS_
                                           ;	.line	238; "MC32F7361.c"	if (cur_key_id != filter_key_id)
                                           	MOVAR	_key_scan_filter_key_id_65536_46
                                           	XORAR	_key_scan_cur_key_id_65536_46
                                           	JBSET	PFLAG,2
                                           	GOTO	_00303_DS_
                                           	GOTO	_00229_DS_
                                           _00303_DS_
                                           ;	.line	241; "MC32F7361.c"	filter_cnt = 0;
                                           	CLRR	_key_scan_filter_cnt_65536_46
                                           ;	.line	242; "MC32F7361.c"	filter_key_id = cur_key_id;
                                           	MOVAR	_key_scan_cur_key_id_65536_46
                                           	MOVRA	_key_scan_filter_key_id_65536_46
                                           ;	.line	243; "MC32F7361.c"	return;
                                           	GOTO	_00253_DS_
                                           ;;unsigned compare: left < lit(0x2=2), size=1
                                           _00229_DS_
                                           ;	.line	246; "MC32F7361.c"	if (filter_cnt < KEY_FILTER_TIMES)
                                           	MOVAI	0x02
                                           	RSUBAR	_key_scan_filter_cnt_65536_46
                                           	JBCLR	PFLAG,0
                                           	GOTO	_00231_DS_
                                           ;;genSkipc:3291: created from rifx:013B5EFC
                                           ;	.line	250; "MC32F7361.c"	filter_cnt++;
                                           	INCR	_key_scan_filter_cnt_65536_46
                                           ;	.line	251; "MC32F7361.c"	return;
                                           	GOTO	_00253_DS_
                                           _00231_DS_
                                           ;	.line	256; "MC32F7361.c"	if (last_key_id != cur_key_id)
                                           	MOVAR	_key_scan_cur_key_id_65536_46
                                           	XORAR	_key_scan_last_key_id_65536_46
                                           	JBSET	PFLAG,2
                                           	GOTO	_00305_DS_
                                           	GOTO	_00251_DS_
                                           _00305_DS_
                                           ;	.line	258; "MC32F7361.c"	if (last_key_id == KEY_ID_NONE)
                                           	MOVAI	0x00
                                           	ORAR	_key_scan_last_key_id_65536_46
                                           	JBSET	PFLAG,2
                                           	GOTO	_00240_DS_
                                           ;	.line	261; "MC32F7361.c"	press_cnt = 0;
                                           	CLRR	_key_scan_press_cnt_65536_46
                                           	GOTO	_00252_DS_
                                           _00240_DS_
                                           ;	.line	263; "MC32F7361.c"	else if (cur_key_id == KEY_ID_NONE)
                                           	MOVAI	0x00
                                           	ORAR	_key_scan_cur_key_id_65536_46
                                           	JBSET	PFLAG,2
                                           	GOTO	_00252_DS_
                                           ;;unsigned compare: left < lit(0x4B=75), size=1
                                           ;	.line	266; "MC32F7361.c"	if (press_cnt < 75)
                                           	MOVAI	0x4b
                                           	RSUBAR	_key_scan_press_cnt_65536_46
                                           	JBCLR	PFLAG,0
                                           	GOTO	_00235_DS_
                                           ;;genSkipc:3291: created from rifx:013B5EFC
                                           ;	.line	269; "MC32F7361.c"	if (KEY_ID_BUTTOM == last_key_id)
                                           	MOVAR	_key_scan_last_key_id_65536_46
                                           	XORAI	0x01
                                           	JBSET	PFLAG,2
                                           	GOTO	_00252_DS_
                                           ;	.line	272; "MC32F7361.c"	key_event = KEY_EVENT_PRESS;
                                           	MOVAI	0x01
                                           	MOVRA	_key_event
                                           	GOTO	_00252_DS_
                                           _00235_DS_
                                           ;	.line	278; "MC32F7361.c"	flag_is_key_mode_hold = 0;
                                           	CLRR	_key_scan_flag_is_key_mode_hold_65536_46
                                           	GOTO	_00252_DS_
                                           _00251_DS_
                                           ;	.line	282; "MC32F7361.c"	else if (cur_key_id != KEY_ID_NONE)
                                           	MOVAI	0x00
                                           	ORAR	_key_scan_cur_key_id_65536_46
                                           	JBCLR	PFLAG,2
                                           	GOTO	_00252_DS_
                                           ;;unsigned compare: left < lit(0xFF=255), size=1
                                           ;	.line	285; "MC32F7361.c"	if (press_cnt < 255)
                                           	MOVAI	0xff
                                           	RSUBAR	_key_scan_press_cnt_65536_46
                                           	JBCLR	PFLAG,0
                                           	GOTO	_00243_DS_
                                           ;;genSkipc:3291: created from rifx:013B5EFC
                                           ;	.line	286; "MC32F7361.c"	press_cnt++;
                                           	INCR	_key_scan_press_cnt_65536_46
                                           _00243_DS_
                                           ;	.line	288; "MC32F7361.c"	if (0 == flag_is_key_mode_hold)
                                           	MOVAI	0x00
                                           	ORAR	_key_scan_flag_is_key_mode_hold_65536_46
                                           	JBSET	PFLAG,2
                                           	GOTO	_00252_DS_
                                           ;;unsigned compare: left < lit(0x64=100), size=1
                                           ;	.line	290; "MC32F7361.c"	if (press_cnt >= 100) // xx ms
                                           	MOVAI	0x64
                                           	RSUBAR	_key_scan_press_cnt_65536_46
                                           	JBSET	PFLAG,0
                                           	GOTO	_00252_DS_
                                           ;;genSkipc:3291: created from rifx:013B5EFC
                                           ;	.line	292; "MC32F7361.c"	key_event = KEY_EVENT_HOLD;
                                           	MOVAI	0x02
                                           	MOVRA	_key_event
                                           ;	.line	293; "MC32F7361.c"	flag_is_key_mode_hold = 1;
                                           	MOVAI	0x01
                                           	MOVRA	_key_scan_flag_is_key_mode_hold_65536_46
                                           _00252_DS_
                                           ;	.line	298; "MC32F7361.c"	last_key_id = cur_key_id;
                                           	MOVAR	_key_scan_cur_key_id_65536_46
                                           	MOVRA	_key_scan_last_key_id_65536_46
                                           _00253_DS_
                                           ;	.line	299; "MC32F7361.c"	}
                                           	RETURN	
                                           ; exit point of _key_scan
                                           
                                           ;***
                                           ;  pBlock Stats: dbName = C
                                           ;***
                                           ;entry:  _Sys_Init	;Function start
                                           ; 2 exit points
                                           ;has an exit
                                           ;functions called:
                                           ;   _CLR_RAM
                                           ;   _IO_Init
                                           ;   _led_red_pwm_config
                                           ;   _led_blue_pwm_config
                                           ;   _led_red_off
                                           ;   _led_blue_off
                                           ;   _adc_config
                                           ;   _timer3_config
                                           ;   _CLR_RAM
                                           ;   _IO_Init
                                           ;   _led_red_pwm_config
                                           ;   _led_blue_pwm_config
                                           ;   _led_red_off
                                           ;   _led_blue_off
                                           ;   _adc_config
                                           ;   _timer3_config
                                           ;; Starting pCode block
                                           _Sys_Init	;Function start
                                           ; 2 exit points
                                           ;	.line	188; "MC32F7361.c"	GIE = 0;
                                           	BCLR	_MCRbits,7
                                           ;	.line	189; "MC32F7361.c"	CLR_RAM();
                                           	CALL	_CLR_RAM
                                           ;	.line	190; "MC32F7361.c"	IO_Init();
                                           	CALL	_IO_Init
                                           ;	.line	193; "MC32F7361.c"	led_red_pwm_config();
                                           	CALL	_led_red_pwm_config
                                           ;	.line	195; "MC32F7361.c"	led_blue_pwm_config();
                                           	CALL	_led_blue_pwm_config
                                           ;	.line	196; "MC32F7361.c"	LED_RED_OFF();
                                           	CALL	_led_red_off
                                           ;	.line	197; "MC32F7361.c"	LED_GREEN_OFF();
                                           	BCLR	_IOP1bits,3
                                           ;	.line	198; "MC32F7361.c"	LED_BLUE_OFF();
                                           	CALL	_led_blue_off
                                           ;	.line	201; "MC32F7361.c"	P00PU = 1; // --()
                                           	BSET	_PUP0bits,0
                                           ;	.line	202; "MC32F7361.c"	P00OE = 0; // 
                                           	BCLR	_OEP0bits,0
                                           ;	.line	208; "MC32F7361.c"	P04OE = 0; // 
                                           	BCLR	_OEP0bits,4
                                           ;	.line	211; "MC32F7361.c"	adc_config();
                                           	CALL	_adc_config
                                           ;	.line	212; "MC32F7361.c"	timer3_config();
                                           	CALL	_timer3_config
                                           ;	.line	214; "MC32F7361.c"	GIE = 1;
                                           	BSET	_MCRbits,7
                                           ;	.line	215; "MC32F7361.c"	}
                                           	RETURN	
                                           ; exit point of _Sys_Init
                                           
                                           ;***
                                           ;  pBlock Stats: dbName = C
                                           ;***
                                           ;entry:  _led_blue_off	;Function start
                                           ; 2 exit points
                                           ;has an exit
                                           ;; Starting pCode block
                                           _led_blue_off	;Function start
                                           ; 2 exit points
                                           ;	.line	175; "MC32F7361.c"	PWM0EC = 0;
                                           	BCLR	_T0CRbits,6
                                           ;	.line	176; "MC32F7361.c"	T0EN = 0;
                                           	BCLR	_T0CRbits,7
                                           ;	.line	177; "MC32F7361.c"	LED_BLUE_PIN = 1; // 
                                           	BSET	_IOP1bits,6
                                           ;	.line	178; "MC32F7361.c"	}
                                           	RETURN	
                                           ; exit point of _led_blue_off
                                           
                                           ;***
                                           ;  pBlock Stats: dbName = C
                                           ;***
                                           ;entry:  _led_blue_on	;Function start
                                           ; 2 exit points
                                           ;has an exit
                                           ;; Starting pCode block
                                           _led_blue_on	;Function start
                                           ; 2 exit points
                                           ;	.line	169; "MC32F7361.c"	PWM0EC = 1;
                                           	BSET	_T0CRbits,6
                                           ;	.line	170; "MC32F7361.c"	T0EN = 1;
                                           	BSET	_T0CRbits,7
                                           ;	.line	171; "MC32F7361.c"	}
                                           	RETURN	
                                           ; exit point of _led_blue_on
                                           
                                           ;***
                                           ;  pBlock Stats: dbName = C
                                           ;***
                                           ;entry:  _led_red_off	;Function start
                                           ; 2 exit points
                                           ;has an exit
                                           ;; Starting pCode block
                                           _led_red_off	;Function start
                                           ; 2 exit points
                                           ;	.line	162; "MC32F7361.c"	PWM1EC = 0;
                                           	BCLR	_T1CRbits,6
                                           ;	.line	163; "MC32F7361.c"	T1EN = 0;
                                           	BCLR	_T1CRbits,7
                                           ;	.line	164; "MC32F7361.c"	LED_RED_PIN = 1; // 
                                           	BSET	_IOP1bits,7
                                           ;	.line	165; "MC32F7361.c"	}
                                           	RETURN	
                                           ; exit point of _led_red_off
                                           
                                           ;***
                                           ;  pBlock Stats: dbName = C
                                           ;***
                                           ;entry:  _led_red_on	;Function start
                                           ; 2 exit points
                                           ;has an exit
                                           ;; Starting pCode block
                                           _led_red_on	;Function start
                                           ; 2 exit points
                                           ;	.line	156; "MC32F7361.c"	PWM1EC = 1;
                                           	BSET	_T1CRbits,6
                                           ;	.line	157; "MC32F7361.c"	T1EN = 1;
                                           	BSET	_T1CRbits,7
                                           ;	.line	158; "MC32F7361.c"	}
                                           	RETURN	
                                           ; exit point of _led_red_on
                                           
                                           ;***
                                           ;  pBlock Stats: dbName = C
                                           ;***
                                           ;entry:  _led_blue_pwm_config	;Function start
                                           ; 2 exit points
                                           ;has an exit
                                           ;; Starting pCode block
                                           _led_blue_pwm_config	;Function start
                                           ; 2 exit points
                                           ;	.line	146; "MC32F7361.c"	T0CR = 0x01 << 1; // PWM,CPU,4
                                           	MOVAI	0x02
                                           	MOVRA	_T0CR
                                           ;	.line	148; "MC32F7361.c"	T0LOAD = 100 - 1; // 100us
                                           	MOVAI	0x63
                                           	MOVRA	_T0LOAD
                                           ;	.line	151; "MC32F7361.c"	T0EN = 0;
                                           	BCLR	_T0CRbits,7
                                           ;	.line	152; "MC32F7361.c"	}
                                           	RETURN	
                                           ; exit point of _led_blue_pwm_config
                                           
                                           ;***
                                           ;  pBlock Stats: dbName = C
                                           ;***
                                           ;entry:  _led_red_pwm_config	;Function start
                                           ; 2 exit points
                                           ;has an exit
                                           ;; Starting pCode block
                                           _led_red_pwm_config	;Function start
                                           ; 2 exit points
                                           ;	.line	135; "MC32F7361.c"	T1CR = 0x01 << 1; // PWM,CPU,4
                                           	MOVAI	0x02
                                           	MOVRA	_T1CR
                                           ;	.line	137; "MC32F7361.c"	T1LOAD = 100 - 1; // 100us
                                           	MOVAI	0x63
                                           	MOVRA	_T1LOAD
                                           ;	.line	140; "MC32F7361.c"	T1EN = 0;
                                           	BCLR	_T1CRbits,7
                                           ;	.line	141; "MC32F7361.c"	}
                                           	RETURN	
                                           ; exit point of _led_red_pwm_config
                                           
                                           ;***
                                           ;  pBlock Stats: dbName = C
                                           ;***
                                           ;entry:  _timer3_config	;Function start
                                           ; 2 exit points
                                           ;has an exit
                                           ;; Starting pCode block
                                           _timer3_config	;Function start
                                           ; 2 exit points
                                           ;	.line	126; "MC32F7361.c"	T3LOAD = 135 - 1; // 1ms
                                           	MOVAI	0x86
                                           	MOVRA	_T3LOAD
                                           ;	.line	128; "MC32F7361.c"	T3CR = (0x01 << 7) | (0x01 << 2) | (0x01); // FCPU32
                                           	MOVAI	0x85
                                           	MOVRA	_T3CR
                                           ;	.line	129; "MC32F7361.c"	T3IE = 1;
                                           	BSET	_INTEbits,7
                                           ;	.line	130; "MC32F7361.c"	}
                                           	RETURN	
                                           ; exit point of _timer3_config
                                           
                                           ;***
                                           ;  pBlock Stats: dbName = C
                                           ;***
                                           ;entry:  _adc_get_val_once	;Function start
                                           ; 2 exit points
                                           ;has an exit
                                           ;7 compiler assigned registers:
                                           ;   r0x1026
                                           ;   r0x1027
                                           ;   r0x1028
                                           ;   r0x1029
                                           ;   r0x102A
                                           ;   r0x102B
                                           ;   STK00
                                           ;; Starting pCode block
                                           _adc_get_val_once	;Function start
                                           ; 2 exit points
                                           ;	.line	110; "MC32F7361.c"	ADEOC = 0; // ADCAD
                                           	BCLR	_ADCR0bits,1
                                           _00188_DS_
                                           ;	.line	111; "MC32F7361.c"	while (!ADEOC)
                                           	JBSET	_ADCR0bits,1
                                           	GOTO	_00188_DS_
                                           ;	.line	113; "MC32F7361.c"	g_temp_value = ADRH; // 
                                           	MOVAR	_ADRH
                                           	MOVRA	r0x1026
                                           	CLRR	r0x1027
                                           ;	.line	114; "MC32F7361.c"	g_temp_value = g_temp_value << 4 | (ADRL & 0x0F);
                                           	SWAPAR	r0x1027
                                           	ANDAI	0xf0
                                           	MOVRA	r0x1028
                                           	SWAPAR	r0x1026
                                           	MOVRA	r0x1029
                                           	ANDAI	0x0f
                                           	ORRA	r0x1028
                                           	XORRA	r0x1029
                                           	MOVAR	_ADRL
                                           	MOVRA	r0x1026
                                           	CLRR	r0x1027
                                           	MOVAI	0x0f
                                           	ANDRA	r0x1026
                                           	CLRR	r0x1027
                                           ;;101	MOVAR	r0x1026
                                           ;;99	MOVRA	r0x102A
                                           ;;104	MOVAR	r0x1027
                                           ;;102	MOVRA	r0x102B
                                           ;;100	MOVAR	r0x102A
                                           	MOVAR	r0x1026
                                           	ORRA	r0x1029
                                           ;;103	MOVAR	r0x102B
                                           	MOVAI	0x00
                                           	ORRA	r0x1028
                                           ;	.line	115; "MC32F7361.c"	return g_temp_value;
                                           	MOVAR	r0x1029
                                           	MOVRA	STK00
                                           	MOVAR	r0x1028
                                           ;	.line	116; "MC32F7361.c"	}
                                           	RETURN	
                                           ; exit point of _adc_get_val_once
                                           
                                           ;***
                                           ;  pBlock Stats: dbName = C
                                           ;***
                                           ;entry:  _adc_get_val	;Function start
                                           ; 2 exit points
                                           ;has an exit
                                           ;16 compiler assigned registers:
                                           ;   r0x1017
                                           ;   r0x1018
                                           ;   r0x1019
                                           ;   r0x101A
                                           ;   r0x101B
                                           ;   r0x101C
                                           ;   r0x101D
                                           ;   r0x101E
                                           ;   r0x101F
                                           ;   r0x1020
                                           ;   r0x1021
                                           ;   r0x1022
                                           ;   r0x1023
                                           ;   r0x1024
                                           ;   r0x1025
                                           ;   STK00
                                           ;; Starting pCode block
                                           _adc_get_val	;Function start
                                           ; 2 exit points
                                           ;	.line	79; "MC32F7361.c"	u32 g_tmpbuff = 0;
                                           	CLRR	r0x1017
                                           	CLRR	r0x1018
                                           	CLRR	r0x1019
                                           	CLRR	r0x101A
                                           ;	.line	80; "MC32F7361.c"	u16 g_adcmax = 0;
                                           	CLRR	r0x101B
                                           	CLRR	r0x101C
                                           ;	.line	81; "MC32F7361.c"	u16 g_adcmin = 0xFFFF;
                                           	MOVAI	0xff
                                           	MOVRA	r0x101D
                                           	MOVRA	r0x101E
                                           ;	.line	84; "MC32F7361.c"	for (i = 0; i < 20; i++)
                                           	CLRR	r0x101F
                                           _00142_DS_
                                           ;	.line	86; "MC32F7361.c"	ADEOC = 0; // ADCAD
                                           	BCLR	_ADCR0bits,1
                                           _00131_DS_
                                           ;	.line	87; "MC32F7361.c"	while (!ADEOC)
                                           	JBSET	_ADCR0bits,1
                                           	GOTO	_00131_DS_
                                           ;	.line	89; "MC32F7361.c"	g_temp_value = ADRH; // 
                                           	MOVAR	_ADRH
                                           	MOVRA	r0x1020
                                           	CLRR	r0x1021
                                           ;	.line	90; "MC32F7361.c"	g_temp_value = g_temp_value << 4 | (ADRL & 0x0F);
                                           	SWAPAR	r0x1021
                                           	ANDAI	0xf0
                                           	MOVRA	r0x1022
                                           	SWAPAR	r0x1020
                                           	MOVRA	r0x1023
                                           	ANDAI	0x0f
                                           	ORRA	r0x1022
                                           	XORRA	r0x1023
                                           	MOVAR	_ADRL
                                           	MOVRA	r0x1020
                                           	CLRR	r0x1021
                                           	MOVAI	0x0f
                                           	ANDRA	r0x1020
                                           	CLRR	r0x1021
                                           ;;120	MOVAR	r0x1020
                                           	MOVAI	0x00
                                           	MOVRA	r0x1025
                                           ;;119	MOVAR	r0x1024
                                           	MOVAR	r0x1020
                                           	MOVRA	r0x1024
                                           	ORAR	r0x1023
                                           	MOVRA	r0x1020
                                           	MOVAR	r0x1025
                                           	ORAR	r0x1022
                                           	MOVRA	r0x1021
                                           ;;unsigned compare: left < lit(0x2=2), size=1
                                           ;	.line	91; "MC32F7361.c"	if (i < 2)
                                           	MOVAI	0x02
                                           	RSUBAR	r0x101F
                                           	JBSET	PFLAG,0
                                           	GOTO	_00140_DS_
                                           ;;genSkipc:3291: created from rifx:013B5EFC
                                           ;	.line	93; "MC32F7361.c"	if (g_temp_value > g_adcmax)
                                           	MOVAR	r0x1021
                                           	RSUBAR	r0x101C
                                           	JBSET	PFLAG,2
                                           	GOTO	_00182_DS_
                                           	MOVAR	r0x1020
                                           	RSUBAR	r0x101B
                                           _00182_DS_
                                           	JBCLR	PFLAG,0
                                           	GOTO	_00137_DS_
                                           ;;genSkipc:3291: created from rifx:013B5EFC
                                           ;	.line	94; "MC32F7361.c"	g_adcmax = g_temp_value; // 
                                           	MOVAR	r0x1020
                                           	MOVRA	r0x101B
                                           	MOVAR	r0x1021
                                           	MOVRA	r0x101C
                                           _00137_DS_
                                           ;	.line	95; "MC32F7361.c"	if (g_temp_value < g_adcmin)
                                           	MOVAR	r0x101E
                                           	RSUBAR	r0x1021
                                           	JBSET	PFLAG,2
                                           	GOTO	_00183_DS_
                                           	MOVAR	r0x101D
                                           	RSUBAR	r0x1020
                                           _00183_DS_
                                           	JBCLR	PFLAG,0
                                           	GOTO	_00139_DS_
                                           ;;genSkipc:3291: created from rifx:013B5EFC
                                           ;	.line	96; "MC32F7361.c"	g_adcmin = g_temp_value; // 
                                           	MOVAR	r0x1020
                                           	MOVRA	r0x101D
                                           	MOVAR	r0x1021
                                           	MOVRA	r0x101E
                                           ;;116	MOVAR	r0x1020
                                           ;;118	MOVAR	r0x1021
                                           _00139_DS_
                                           ;	.line	97; "MC32F7361.c"	g_tmpbuff += g_temp_value;
                                           	CLRR	r0x1024
                                           	CLRR	r0x1025
                                           ;;115	MOVAR	r0x1023
                                           	MOVAR	r0x1020
                                           	MOVRA	r0x1023
                                           	ADDRA	r0x1017
                                           ;;117	MOVAR	r0x1022
                                           	MOVAR	r0x1021
                                           	MOVRA	r0x1022
                                           	JBCLR	PFLAG,0
                                           	JZAR	r0x1022
                                           	ADDRA	r0x1018
                                           	MOVAR	r0x1024
                                           	JBCLR	PFLAG,0
                                           	JZAR	r0x1024
                                           	ADDRA	r0x1019
                                           	MOVAR	r0x1025
                                           	JBCLR	PFLAG,0
                                           	JZAR	r0x1025
                                           	ADDRA	r0x101A
                                           _00140_DS_
                                           ;	.line	84; "MC32F7361.c"	for (i = 0; i < 20; i++)
                                           	INCR	r0x101F
                                           ;;unsigned compare: left < lit(0x14=20), size=1
                                           	MOVAI	0x14
                                           	RSUBAR	r0x101F
                                           	JBSET	PFLAG,0
                                           	GOTO	_00142_DS_
                                           ;;genSkipc:3291: created from rifx:013B5EFC
                                           ;;114	MOVAR	r0x101B
                                           ;	.line	99; "MC32F7361.c"	g_tmpbuff -= g_adcmax;           // 
                                           	MOVAR	r0x101C
                                           	MOVRA	r0x1020
                                           	CLRR	r0x1021
                                           	CLRR	r0x1023
                                           ;;113	MOVAR	r0x101F
                                           	MOVAR	r0x101B
                                           	MOVRA	r0x101F
                                           	RSUBAR	r0x1017
                                           	MOVRA	r0x101B
                                           	MOVAR	r0x1018
                                           	MOVRA	r0x101C
                                           	MOVAR	r0x1020
                                           	JBSET	PFLAG,0
                                           	JZAR	r0x1020
                                           	RSUBRA	r0x101C
                                           	MOVAR	r0x1019
                                           	MOVRA	r0x1022
                                           	MOVAR	r0x1021
                                           	JBSET	PFLAG,0
                                           	JZAR	r0x1021
                                           	RSUBRA	r0x1022
                                           	MOVAR	r0x1023
                                           	JBSET	PFLAG,0
                                           	INCAR	r0x1023
                                           	RSUBAR	r0x101A
                                           	MOVRA	r0x1024
                                           ;;106	MOVAR	r0x101D
                                           ;;108	MOVAR	r0x101E
                                           ;	.line	100; "MC32F7361.c"	g_tmpbuff -= g_adcmin;           // 
                                           	CLRR	r0x1019
                                           	CLRR	r0x101A
                                           ;;105	MOVAR	r0x1017
                                           	MOVAR	r0x101D
                                           	MOVRA	r0x1017
                                           	RSUBRA	r0x101B
                                           ;;107	MOVAR	r0x1018
                                           	MOVAR	r0x101E
                                           	MOVRA	r0x1018
                                           	JBSET	PFLAG,0
                                           	JZAR	r0x1018
                                           	RSUBRA	r0x101C
                                           	MOVAR	r0x1019
                                           	JBSET	PFLAG,0
                                           	JZAR	r0x1019
                                           	RSUBRA	r0x1022
                                           	MOVAR	r0x101A
                                           	JBSET	PFLAG,0
                                           	JZAR	r0x101A
                                           	RSUBRA	r0x1024
                                           ;	.line	101; "MC32F7361.c"	g_temp_value = (g_tmpbuff >> 4); // 16
                                           	SWAPAR	r0x101B
                                           	ANDAI	0x0f
                                           	MOVRA	r0x1017
                                           	SWAPAR	r0x101C
                                           	MOVRA	r0x1018
                                           	ANDAI	0xf0
                                           	ORRA	r0x1017
                                           	XORRA	r0x1018
                                           	SWAPAR	r0x1022
                                           	MOVRA	r0x1019
                                           	ANDAI	0xf0
                                           	ORRA	r0x1018
                                           	XORRA	r0x1019
                                           	SWAPAR	r0x1024
                                           	MOVRA	r0x101A
                                           	ANDAI	0xf0
                                           	ORRA	r0x1019
                                           	XORRA	r0x101A
                                           ;;110	MOVAR	r0x1017
                                           ;;112	MOVAR	r0x1018
                                           ;;109	MOVAR	r0x101B
                                           ;	.line	103; "MC32F7361.c"	return g_temp_value;
                                           	MOVAR	r0x1017
                                           	MOVRA	r0x101B
                                           	MOVRA	STK00
                                           ;;111	MOVAR	r0x101C
                                           	MOVAR	r0x1018
                                           	MOVRA	r0x101C
                                           ;	.line	104; "MC32F7361.c"	}
                                           	RETURN	
                                           ; exit point of _adc_get_val
                                           
                                           ;***
                                           ;  pBlock Stats: dbName = C
                                           ;***
                                           ;entry:  _adc_config	;Function start
                                           ; 2 exit points
                                           ;has an exit
                                           ;; Starting pCode block
                                           _adc_config	;Function start
                                           ; 2 exit points
                                           ;	.line	69; "MC32F7361.c"	ADCR0 = 0xAB; // 12adc,adc  1/4 VDD
                                           	MOVAI	0xab
                                           	MOVRA	_ADCR0
                                           ;	.line	70; "MC32F7361.c"	ADCR1 = 0x80; // adc FHIRC/322.0V
                                           	MOVAI	0x80
                                           	MOVRA	_ADCR1
                                           ;	.line	71; "MC32F7361.c"	ADCR2 = 0x0F; // 15  ADCLK
                                           	MOVAI	0x0f
                                           	MOVRA	_ADCR2
                                           ;	.line	72; "MC32F7361.c"	}
                                           	RETURN	
                                           ; exit point of _adc_config
                                           
                                           ;***
                                           ;  pBlock Stats: dbName = C
                                           ;***
                                           ;entry:  _IO_Init	;Function start
                                           ; 2 exit points
                                           ;has an exit
                                           ;; Starting pCode block
                                           _IO_Init	;Function start
                                           ; 2 exit points
                                           ;	.line	37; "MC32F7361.c"	IOP0 = 0x00;   // io
                                           	CLRR	_IOP0
                                           ;	.line	38; "MC32F7361.c"	OEP0 = 0x3F;   // io 1:out  0:in
                                           	MOVAI	0x3f
                                           	MOVRA	_OEP0
                                           ;	.line	39; "MC32F7361.c"	PUP0 = 0x00;   // io   1:enable  0:disable
                                           	CLRR	_PUP0
                                           ;	.line	40; "MC32F7361.c"	PDP0 = 0x00;   // io   1:enable  0:disable
                                           	CLRR	_PDP0
                                           ;	.line	41; "MC32F7361.c"	P0ADCR = 0x00; // io  1:  0:io
                                           	CLRR	_P0ADCR
                                           ;	.line	44; "MC32F7361.c"	IOP1 = 0xC0;   // LED
                                           	MOVAI	0xc0
                                           	MOVRA	_IOP1
                                           ;	.line	45; "MC32F7361.c"	OEP1 = 0xFF;   // io 1:out  0:in
                                           	MOVAI	0xff
                                           	MOVRA	_OEP1
                                           ;	.line	46; "MC32F7361.c"	PUP1 = 0x00;   // io   1:enable  0:disable
                                           	CLRR	_PUP1
                                           ;	.line	47; "MC32F7361.c"	PDP1 = 0x00;   // io   1:enable  0:disable
                                           	CLRR	_PDP1
                                           ;	.line	48; "MC32F7361.c"	P1ADCR = 0x00; // io  1:  0:io
                                           	CLRR	_P1ADCR
                                           ;	.line	50; "MC32F7361.c"	IOP2 = 0x00; // io
                                           	CLRR	_IOP2
                                           ;	.line	51; "MC32F7361.c"	OEP2 = 0x0F; // io 1:out  0:in
                                           	MOVAI	0x0f
                                           	MOVRA	_OEP2
                                           ;	.line	52; "MC32F7361.c"	PUP2 = 0x00; // io   1:enable  0:disable
                                           	CLRR	_PUP2
                                           ;	.line	53; "MC32F7361.c"	PDP2 = 0x00; // io   1:enable  0:disablea
                                           	CLRR	_PDP2
                                           ;	.line	55; "MC32F7361.c"	PMOD = 0x00;  // P00P01P13 io
                                           	CLRR	_PMOD
                                           ;	.line	56; "MC32F7361.c"	DRVCR = 0xB0; // P16P17100mA
                                           	MOVAI	0xb0
                                           	MOVRA	_DRVCR
                                           ;	.line	59; "MC32F7361.c"	}
                                           	RETURN	
                                           ; exit point of _IO_Init
                                           
                                           ;***
                                           ;  pBlock Stats: dbName = C
                                           ;***
                                           ;entry:  _CLR_RAM	;Function start
                                           ; 2 exit points
                                           ;has an exit
                                           ;; Starting pCode block
                                           _CLR_RAM	;Function start
                                           ; 2 exit points
                                           ;	.line	22; "MC32F7361.c"	for (FSR0 = 0; FSR0 < 0xff; FSR0++)
                                           	CLRR	_FSR0
                                           ;;unsigned compare: left < lit(0xFF=255), size=1
                                           _00118_DS_
                                           	MOVAI	0xff
                                           	RSUBAR	_FSR0
                                           	JBCLR	PFLAG,0
                                           	GOTO	_00116_DS_
                                           ;;genSkipc:3291: created from rifx:013B5EFC
                                           ;	.line	24; "MC32F7361.c"	INDF0 = 0x00;
                                           	CLRR	_INDF0
                                           ;	.line	22; "MC32F7361.c"	for (FSR0 = 0; FSR0 < 0xff; FSR0++)
                                           	INCR	_FSR0
                                           	GOTO	_00118_DS_
                                           _00116_DS_
                                           ;	.line	26; "MC32F7361.c"	FSR0 = 0xFF;
                                           	MOVAI	0xff
                                           	MOVRA	_FSR0
                                           ;	.line	27; "MC32F7361.c"	INDF0 = 0x00;
                                           	CLRR	_INDF0
                                           ;	.line	28; "MC32F7361.c"	}
                                           	RETURN	
                                           ; exit point of _CLR_RAM
                                           
                                           ;***
                                           ;  pBlock Stats: dbName = C
                                           ;***
                                           ;entry:  _delay_ms	;Function start
                                           ; 2 exit points
                                           ;has an exit
                                           ;7 compiler assigned registers:
                                           ;   r0x1017
                                           ;   STK00
                                           ;   r0x1018
                                           ;   r0x1019
                                           ;   r0x101A
                                           ;   r0x101B
                                           ;   r0x101C
                                           ;; Starting pCode block
                                           _delay_ms	;Function start
                                           ; 2 exit points
                                           ;	.line	249; "user.h"	void delay_ms(u16 xms)
                                           	MOVRA	r0x1017
                                           	MOVAR	STK00
                                           	MOVRA	r0x1018
                                           _00108_DS_
                                           ;	.line	251; "user.h"	while (xms)
                                           	MOVAR	r0x1018
                                           	ORAR	r0x1017
                                           	JBCLR	PFLAG,2
                                           	GOTO	_00111_DS_
                                           ;	.line	254; "user.h"	while (i--)
                                           	MOVAI	0x1c
                                           	MOVRA	r0x1019
                                           	MOVAI	0x01
                                           	MOVRA	r0x101A
                                           _00105_DS_
                                           	MOVAR	r0x1019
                                           	MOVRA	r0x101B
                                           	MOVAR	r0x101A
                                           	MOVRA	r0x101C
                                           	MOVAI	0xff
                                           	ADDRA	r0x1019
                                           	JBSET	PFLAG,0
                                           	DECR	r0x101A
                                           	MOVAR	r0x101B
                                           	ORAR	r0x101C
                                           	JBCLR	PFLAG,2
                                           	GOTO	_00107_DS_
                                           ;	.line	256; "user.h"	Nop();
                                           	nop	
                                           	GOTO	_00105_DS_
                                           _00107_DS_
                                           ;	.line	258; "user.h"	xms--; //  --while()
                                           	MOVAI	0xff
                                           	ADDRA	r0x1018
                                           	JBSET	PFLAG,0
                                           	DECR	r0x1017
                                           ;	.line	262; "user.h"	__endasm;
                                           	;
                                           	clrwdt;
                                           	
                                           	GOTO	_00108_DS_
                                           _00111_DS_
                                           ;	.line	264; "user.h"	}
                                           	RETURN	
                                           ; exit point of _delay_ms
                                           
                                           
                                           ;	code size estimation:
                                           ;	  741+    0 =   741 instructions ( 1482 byte)
                                           
                                           	end


MEMORY USAGE MAP ('X' = Used,  '-' = Unused)

0000 : XX-------------- XXXXXXXXXXXXXXXX XXXXXXXXXXXXXXXX XXXXXXXXXXXXXXXX
0040 : XXXXXXXXXXXXXXXX XXXXXXXXXXXXXXXX XXXXXXXXXXXXXXXX XXXXXXXXXXXXXXXX
0080 : XXXXXXXXXXXXXXXX XXXXXXXXXXXXXXXX XXXXXXXXXXXXXXXX XXXXXXXXXXXXXXXX
00C0 : XXXXXXXXXXXXXXXX XXXXXXXXXXXXXXXX XXXXXXXXXXXXXXXX XXXXXXXXXXXXXXXX
0100 : XXXXXXXXXXXXXXXX XXXXXXXXXXXXXXXX XXXXXXXXXXXXXXXX XXXXXXXXXXXXXXXX
0140 : XXXXXXXXXXXXXXXX XXXXXXXXXXXXXXXX XXXXXXXXXXXXXXXX XXXXXXXXXXXXXXXX
0180 : XXXXXXXXXXXXXXXX XXXXXXXXXXXXXXXX XXXXXXXXXXXXXXXX XXXXXXXXXXXXXXXX
01C0 : XXXXXXXXXXXXXXXX XXXXXXXXXXXXXXXX XXXXXXXXXXXXXXXX XXXXXXXXXXXXXXXX
0200 : XXXXXXXXXXXXXXXX XXXXXXXXXXXXXXXX XXXXXXXXXXXXXXXX XXXXXXXXXXXXXXXX
0240 : XXXXXXXXXXXXXXXX XXXXXXXXXXXXXXXX XXXXXXXXXXXXXXXX XXXXXXXXXXXXXXXX
0280 : XXXXXXXXXXXXXXXX XXXXXXXXXXXXXXXX XXXXXXXXXXXXXXXX XXXXXXXXXXXXXXXX
02C0 : XXXXXXXXXXXXXXXX XXXXXXXXXXXXXXXX XXXXXXXXXXXXXXXX XXXXXXXXXXXXXXXX
0300 : XXXXXXXXXXXXXXXX XXXXXXXXXXXXXXXX XXXXXXXXXXXXXXXX XXXXXXXXXXXXXXXX
0340 : XXXXXXXXXXXXXXXX XXXXXXXXXXXXXXXX XXXXXXXXXXXXXXXX XXXXXXXXXXXXXXXX
0380 : XXXXXXXXXXXXXXXX XXXXXXXXXXXXXXXX XXXXXXXXXXXXXXXX XXXXXXXXXXXXXXXX
03C0 : XXXXXXXXXXXXXXXX XXXXXXXXXXXXXXXX XXXXXXXXXXXXXXXX XXXXXXXXXXXXXXXX
0400 : XXXXXXXXXXXXXXXX XXXXXXXXXXXXXXXX XXXXXXXXXXXXXXXX XXXXXXXXXXXXXXXX
0440 : XXXXXXXXXXXXXXXX XXXXXXXXXXXXXXXX XXXXXXXXXXXXXXXX XXXXXXXXXXXXXXXX
0480 : XXXXXXXXXXXXXXXX XXXXXXXXXXXXXXXX XXXXXXXXXXXXXXXX XXXXXXXXXXXXXXXX
04C0 : XXXXXXXXXXXXXXXX XXXXXXXXXXXXXXXX XXXXXXXXXXXXXXXX XXXXXXXXXXXXXXXX
0500 : XXXXXXXXXXXXXXXX XXXXXXXXXXXXXXXX XXXXXXXXXXXXXXXX XXXXXXXXXXXXXXXX
0540 : XXXXXXXXXXXXXXXX XXXXXXXXXXXXXXXX XXXXXXXXXXXXXXXX XXXXXXXXXXXXXXXX
0580 : XXXXXXXXXXXXXXXX XXXXXXXXXXXXXXXX XXXXXXXXXXXXXXXX XXXXXXXXXXXXXXXX
05C0 : XXXXXXXXXXXXXXXX XXXXXXXXXXXXXXXX XXXXXXXXXXXXXXXX XXXXXXXX--------

All other memory blocks unused.

Program Memory Words Used:   757

